
qsys_webserver.elf:     file format elf32-littlenios2
qsys_webserver.elf
architecture: nios2, flags 0x00000112:
EXEC_P, HAS_SYMS, D_PAGED
start address 0x020001bc

Program Header:
    LOAD off    0x00001000 vaddr 0x00000000 paddr 0x00000000 align 2**12
         filesz 0x00000000 memsz 0x00000000 flags r-x
    LOAD off    0x00001020 vaddr 0x02000020 paddr 0x02000020 align 2**12
         filesz 0x000541f4 memsz 0x0063e19c flags rwx

Sections:
Idx Name          Size      VMA       LMA       File off  Algn
  0 .entry        00000000  00000000  00000000  00001000  2**5
                  CONTENTS, ALLOC, LOAD, READONLY, CODE
  1 .exceptions   0000019c  02000020  02000020  00001020  2**2
                  CONTENTS, ALLOC, LOAD, READONLY, CODE
  2 .text         0004bf6c  020001bc  020001bc  000011bc  2**2
                  CONTENTS, ALLOC, LOAD, READONLY, CODE
  3 .rodata       00006080  0204c128  0204c128  0004d128  2**2
                  CONTENTS, ALLOC, LOAD, READONLY, DATA
  4 .rwdata       0000206c  020521a8  020521a8  000531a8  2**2
                  CONTENTS, ALLOC, LOAD, DATA, SMALL_DATA
  5 .bss          005ea255  02054214  02054214  00055214  2**2
                  ALLOC, SMALL_DATA
  6 .comment      00000023  00000000  00000000  00055214  2**0
                  CONTENTS, READONLY
  7 .debug_aranges 00001f88  00000000  00000000  00055238  2**3
                  CONTENTS, READONLY, DEBUGGING
  8 .debug_info   0007b5b3  00000000  00000000  000571c0  2**0
                  CONTENTS, READONLY, DEBUGGING
  9 .debug_abbrev 000189f2  00000000  00000000  000d2773  2**0
                  CONTENTS, READONLY, DEBUGGING
 10 .debug_line   000201ca  00000000  00000000  000eb165  2**0
                  CONTENTS, READONLY, DEBUGGING
 11 .debug_frame  00006f1c  00000000  00000000  0010b330  2**2
                  CONTENTS, READONLY, DEBUGGING
 12 .debug_str    0000c25b  00000000  00000000  0011224c  2**0
                  CONTENTS, READONLY, DEBUGGING
 13 .debug_loc    00021812  00000000  00000000  0011e4a7  2**0
                  CONTENTS, READONLY, DEBUGGING
 14 .debug_alt_sim_info 00000050  00000000  00000000  0013fcbc  2**2
                  CONTENTS, READONLY, DEBUGGING
 15 .debug_ranges 00000ef8  00000000  00000000  0013fd10  2**3
                  CONTENTS, READONLY, DEBUGGING
 16 .thread_model 00000006  00000000  00000000  0014bf37  2**0
                  CONTENTS, READONLY
 17 .cpu          00000005  00000000  00000000  0014bf3d  2**0
                  CONTENTS, READONLY
 18 .qsys         00000001  00000000  00000000  0014bf42  2**0
                  CONTENTS, READONLY
 19 .simulation_enabled 00000001  00000000  00000000  0014bf43  2**0
                  CONTENTS, READONLY
 20 .sysid_hash   00000004  00000000  00000000  0014bf44  2**0
                  CONTENTS, READONLY
 21 .sysid_base   00000004  00000000  00000000  0014bf48  2**0
                  CONTENTS, READONLY
 22 .sysid_time   00000004  00000000  00000000  0014bf4c  2**0
                  CONTENTS, READONLY
 23 .stderr_dev   00000009  00000000  00000000  0014bf50  2**0
                  CONTENTS, READONLY
 24 .stdin_dev    00000009  00000000  00000000  0014bf59  2**0
                  CONTENTS, READONLY
 25 .stdout_dev   00000009  00000000  00000000  0014bf62  2**0
                  CONTENTS, READONLY
 26 .sopc_system_name 00000007  00000000  00000000  0014bf6b  2**0
                  CONTENTS, READONLY
 27 .quartus_project_dir 00000024  00000000  00000000  0014bf72  2**0
                  CONTENTS, READONLY
 28 .sopcinfo     00082060  00000000  00000000  0014bf96  2**0
                  CONTENTS, READONLY
SYMBOL TABLE:
00000000 l    d  .entry	00000000 .entry
02000020 l    d  .exceptions	00000000 .exceptions
020001bc l    d  .text	00000000 .text
0204c128 l    d  .rodata	00000000 .rodata
020521a8 l    d  .rwdata	00000000 .rwdata
02054214 l    d  .bss	00000000 .bss
00000000 l    d  .comment	00000000 .comment
00000000 l    d  .debug_aranges	00000000 .debug_aranges
00000000 l    d  .debug_info	00000000 .debug_info
00000000 l    d  .debug_abbrev	00000000 .debug_abbrev
00000000 l    d  .debug_line	00000000 .debug_line
00000000 l    d  .debug_frame	00000000 .debug_frame
00000000 l    d  .debug_str	00000000 .debug_str
00000000 l    d  .debug_loc	00000000 .debug_loc
00000000 l    d  .debug_alt_sim_info	00000000 .debug_alt_sim_info
00000000 l    d  .debug_ranges	00000000 .debug_ranges
00000000 l    df *ABS*	00000000 F:/Qsys/qsys_webserver/qsys/software/qsys_webserver_bsp//obj/HAL/src/crt0.o
02000200 l       .text	00000000 alt_after_alt_main
00000000 l    df *ABS*	00000000 alt_exception_entry.o
02000094 l       .exceptions	00000000 alt_exception_unknown
00000000 l    df *ABS*	00000000 alt_irq_handler.c
00000000 l    df *ABS*	00000000 alt_error_handler.c
00000000 l    df *ABS*	00000000 http.c
0204c77c l     O .rodata	0000015f canned_http_response
0204c8dc l     O .rodata	000000eb canned_response2
020543f8 l     O .bss	0000cb10 conn.5350
00000000 l    df *ABS*	00000000 network_utilities.c
00000000 l    df *ABS*	00000000 srec_flash.c
00000000 l    df *ABS*	00000000 web_server.c
020042dc l     F .text	000000e0 WSCreateTasks
00000000 l    df *ABS*	00000000 atoi.c
00000000 l    df *ABS*	00000000 ctype_.c
0204d4dd l     O .rodata	00000180 _ctype_b
00000000 l    df *ABS*	00000000 fclose.c
00000000 l    df *ABS*	00000000 fflush.c
00000000 l    df *ABS*	00000000 fgetpos.c
00000000 l    df *ABS*	00000000 findfp.c
0200489c l     F .text	00000008 __fp_lock
020048a4 l     F .text	00000008 __fp_unlock
00000000 l    df *ABS*	00000000 fopen.c
00000000 l    df *ABS*	00000000 fprintf.c
00000000 l    df *ABS*	00000000 fread.c
00000000 l    df *ABS*	00000000 mallocr.c
00000000 l    df *ABS*	00000000 fseek.c
00000000 l    df *ABS*	00000000 fstatr.c
00000000 l    df *ABS*	00000000 ftell.c
00000000 l    df *ABS*	00000000 fwalk.c
00000000 l    df *ABS*	00000000 fwrite.c
00000000 l    df *ABS*	00000000 getc.c
00000000 l    df *ABS*	00000000 impure.c
020521c0 l     O .rwdata	00000400 impure_data
00000000 l    df *ABS*	00000000 int_errno.c
00000000 l    df *ABS*	00000000 makebuf.c
00000000 l    df *ABS*	00000000 mallocr.c
00000000 l    df *ABS*	00000000 memcpy.c
00000000 l    df *ABS*	00000000 memmove.c
00000000 l    df *ABS*	00000000 memset.c
00000000 l    df *ABS*	00000000 openr.c
00000000 l    df *ABS*	00000000 perror.c
00000000 l    df *ABS*	00000000 printf.c
00000000 l    df *ABS*	00000000 putc.c
00000000 l    df *ABS*	00000000 putchar.c
00000000 l    df *ABS*	00000000 puts.c
00000000 l    df *ABS*	00000000 refill.c
02006cc8 l     F .text	0000001c lflush
00000000 l    df *ABS*	00000000 rget.c
00000000 l    df *ABS*	00000000 sbrkr.c
00000000 l    df *ABS*	00000000 sprintf.c
00000000 l    df *ABS*	00000000 sscanf.c
02007058 l     F .text	00000008 eofread
00000000 l    df *ABS*	00000000 stdio.c
00000000 l    df *ABS*	00000000 strcasecmp.c
00000000 l    df *ABS*	00000000 strcat.c
00000000 l    df *ABS*	00000000 strchr.c
00000000 l    df *ABS*	00000000 strcmp.c
00000000 l    df *ABS*	00000000 strcpy.c
00000000 l    df *ABS*	00000000 strerror.c
00000000 l    df *ABS*	00000000 strlen.c
00000000 l    df *ABS*	00000000 strncmp.c
00000000 l    df *ABS*	00000000 strncpy.c
00000000 l    df *ABS*	00000000 strstr.c
02007ea4 l     F .text	00000124 critical_factorization
02007fc8 l     F .text	0000036c two_way_long_needle
00000000 l    df *ABS*	00000000 strtok.c
00000000 l    df *ABS*	00000000 strtok_r.c
00000000 l    df *ABS*	00000000 strtol.c
00000000 l    df *ABS*	00000000 u_strerr.c
00000000 l    df *ABS*	00000000 vfprintf.c
020089fc l     F .text	00000034 __sprint_r
0204de52 l     O .rodata	00000010 blanks.3515
0204de62 l     O .rodata	00000010 zeroes.3516
00000000 l    df *ABS*	00000000 vfscanf.c
0204de7a l     O .rodata	00000022 basefix.3427
00000000 l    df *ABS*	00000000 wbuf.c
00000000 l    df *ABS*	00000000 writer.c
00000000 l    df *ABS*	00000000 wsetup.c
00000000 l    df *ABS*	00000000 closer.c
00000000 l    df *ABS*	00000000 dtoa.c
0200c320 l     F .text	00000208 quorem
00000000 l    df *ABS*	00000000 flags.c
00000000 l    df *ABS*	00000000 fputc.c
00000000 l    df *ABS*	00000000 fputs.c
00000000 l    df *ABS*	00000000 fvwrite.c
00000000 l    df *ABS*	00000000 isattyr.c
00000000 l    df *ABS*	00000000 iswspace.c
00000000 l    df *ABS*	00000000 locale.c
0204debc l     O .rodata	00000030 lconv
00000000 l    df *ABS*	00000000 lseekr.c
00000000 l    df *ABS*	00000000 mbrtowc.c
00000000 l    df *ABS*	00000000 mbtowc_r.c
00000000 l    df *ABS*	00000000 memchr.c
00000000 l    df *ABS*	00000000 memcmp.c
00000000 l    df *ABS*	00000000 mprec.c
0204e004 l     O .rodata	0000000c p05.2435
00000000 l    df *ABS*	00000000 readr.c
00000000 l    df *ABS*	00000000 mallocr.c
00000000 l    df *ABS*	00000000 s_isinfd.c
00000000 l    df *ABS*	00000000 s_isnand.c
00000000 l    df *ABS*	00000000 sccl.c
00000000 l    df *ABS*	00000000 sf_nan.c
00000000 l    df *ABS*	00000000 strtod.c
020529d4 l     O .rwdata	00000014 fpi.2015
0204e020 l     O .rodata	00000028 tinytens
020529e8 l     O .rwdata	00000014 fpinan.2051
00000000 l    df *ABS*	00000000 strtoll_r.c
00000000 l    df *ABS*	00000000 strtoul.c
00000000 l    df *ABS*	00000000 strtoull_r.c
00000000 l    df *ABS*	00000000 ungetc.c
00000000 l    df *ABS*	00000000 mallocr.c
00000000 l    df *ABS*	00000000 gdtoa-gethex.c
02011fd8 l     F .text	00000110 rshift
00000000 l    df *ABS*	00000000 gdtoa-hexnan.c
00000000 l    df *ABS*	00000000 libgcc2.c
00000000 l    df *ABS*	00000000 libgcc2.c
00000000 l    df *ABS*	00000000 libgcc2.c
00000000 l    df *ABS*	00000000 libgcc2.c
00000000 l    df *ABS*	00000000 fp-bit.c
00000000 l    df *ABS*	00000000 fp-bit.c
00000000 l    df *ABS*	00000000 fp-bit.c
00000000 l    df *ABS*	00000000 fp-bit.c
02013880 l     F .text	00000354 _fpadd_parts
00000000 l    df *ABS*	00000000 fp-bit.c
00000000 l    df *ABS*	00000000 fp-bit.c
00000000 l    df *ABS*	00000000 fp-bit.c
00000000 l    df *ABS*	00000000 fp-bit.c
00000000 l    df *ABS*	00000000 fp-bit.c
00000000 l    df *ABS*	00000000 fp-bit.c
00000000 l    df *ABS*	00000000 fp-bit.c
00000000 l    df *ABS*	00000000 fp-bit.c
00000000 l    df *ABS*	00000000 fp-bit.c
00000000 l    df *ABS*	00000000 fp-bit.c
00000000 l    df *ABS*	00000000 fp-bit.c
00000000 l    df *ABS*	00000000 fp-bit.c
00000000 l    df *ABS*	00000000 fp-bit.c
00000000 l    df *ABS*	00000000 lib2-divmod.c
0201467c l     F .text	00000074 udivmodsi4
00000000 l    df *ABS*	00000000 libgcc2.c
00000000 l    df *ABS*	00000000 libgcc2.c
00000000 l    df *ABS*	00000000 fp-bit.c
00000000 l    df *ABS*	00000000 fp-bit.c
00000000 l    df *ABS*	00000000 fp-bit.c
00000000 l    df *ABS*	00000000 fp-bit.c
00000000 l    df *ABS*	00000000 fp-bit.c
00000000 l    df *ABS*	00000000 fp-bit.c
00000000 l    df *ABS*	00000000 libgcc2.c
00000000 l    df *ABS*	00000000 libgcc2.c
00000000 l    df *ABS*	00000000 fp-bit.c
00000000 l    df *ABS*	00000000 alt_dcache_flush.c
00000000 l    df *ABS*	00000000 alt_flash_dev.c
00000000 l    df *ABS*	00000000 alt_fstat.c
020150e0 l     F .text	00000050 alt_get_errno
00000000 l    df *ABS*	00000000 alt_isatty.c
020151dc l     F .text	00000050 alt_get_errno
00000000 l    df *ABS*	00000000 alt_lseek.c
020152cc l     F .text	00000050 alt_get_errno
00000000 l    df *ABS*	00000000 alt_main.c
00000000 l    df *ABS*	00000000 alt_open.c
020154b8 l     F .text	00000050 alt_get_errno
02015508 l     F .text	000000cc alt_file_locked
00000000 l    df *ABS*	00000000 alt_release_fd.c
00000000 l    df *ABS*	00000000 alt_sbrk.c
020540f0 l     O .rwdata	00000004 heap_end
00000000 l    df *ABS*	00000000 alt_tick.c
00000000 l    df *ABS*	00000000 alt_env_lock.c
020540fc l     O .rwdata	00000004 lockid
0205425c l     O .bss	00000004 locks
00000000 l    df *ABS*	00000000 alt_malloc_lock.c
02054100 l     O .rwdata	00000004 lockid
02054264 l     O .bss	00000004 locks
00000000 l    df *ABS*	00000000 os_core.c
020172e0 l     F .text	00000044 OS_InitMisc
02017324 l     F .text	0000006c OS_InitRdyList
02017488 l     F .text	000000e0 OS_InitTCBList
02017204 l     F .text	000000dc OS_InitEventList
02017390 l     F .text	0000007c OS_InitTaskIdle
0201740c l     F .text	0000007c OS_InitTaskStat
020176f4 l     F .text	00000070 OS_SchedNew
00000000 l    df *ABS*	00000000 os_dbg.c
00000000 l    df *ABS*	00000000 os_flag.c
02019500 l     F .text	0000010c OS_FlagTaskRdy
0201925c l     F .text	000001c0 OS_FlagBlock
00000000 l    df *ABS*	00000000 os_mbox.c
00000000 l    df *ABS*	00000000 os_mem.c
00000000 l    df *ABS*	00000000 os_q.c
00000000 l    df *ABS*	00000000 os_sem.c
00000000 l    df *ABS*	00000000 os_task.c
00000000 l    df *ABS*	00000000 os_time.c
00000000 l    df *ABS*	00000000 alt_sys_init.c
0201e638 l     F .text	00000038 alt_dev_reg
020529fc l     O .rwdata	000000c8 epcs_flash_controller
02052ac4 l     O .rwdata	0000106c jtag_uart
02053b30 l     O .rwdata	00000030 sgdma_rx
02053b60 l     O .rwdata	00000030 sgdma_tx
02053b90 l     O .rwdata	00000030 altera_ro_zipfs
00000000 l    df *ABS*	00000000 altera_avalon_epcs_flash_controller.c
0201e910 l     F .text	00000038 alt_flash_device_register
0201e99c l     F .text	0000028c alt_epcs_flash_query
0201ec28 l     F .text	000000e8 alt_epcs_flash_memcmp
0201effc l     F .text	00000094 alt_epcs_test_address
00000000 l    df *ABS*	00000000 altera_avalon_jtag_uart_fd.c
00000000 l    df *ABS*	00000000 altera_avalon_jtag_uart_init.c
0201f540 l     F .text	000002ac altera_avalon_jtag_uart_irq
0201f7ec l     F .text	0000010c altera_avalon_jtag_uart_timeout
00000000 l    df *ABS*	00000000 altera_avalon_jtag_uart_ioctl.c
00000000 l    df *ABS*	00000000 altera_avalon_jtag_uart_read.c
00000000 l    df *ABS*	00000000 altera_avalon_jtag_uart_write.c
00000000 l    df *ABS*	00000000 altera_avalon_sgdma.c
0201ffe8 l     F .text	00000050 alt_get_errno
02020b8c l     F .text	000000b8 alt_avalon_sgdma_irq
00000000 l    df *ABS*	00000000 altera_avalon_timer_sc.c
02020ce8 l     F .text	00000074 alt_avalon_timer_sc_irq
00000000 l    df *ABS*	00000000 altera_ro_zipfs.c
02020de4 l     F .text	00000068 read_word
02020e4c l     F .text	00000054 read_word_inc
02020ea0 l     F .text	00000068 read_half_word
02020f08 l     F .text	00000054 read_half_word_inc
02020f5c l     F .text	00000120 check_file_header
020211b0 l     F .text	000000a4 check_directory_table
02021254 l     F .text	000000ac find_directory_entry
02021300 l     F .text	000001cc find_file_entry_by_name
020214cc l     F .text	0000019c find_file_entry
00000000 l    df *ABS*	00000000 epcs_commands.c
02021a74 l     F .text	00000038 epcs_test_wip
02021aac l     F .text	00000038 epcs_await_wip_released
00000000 l    df *ABS*	00000000 ins_tse_mac.c
00000000 l    df *ABS*	00000000 alt_iniche_close.c
00000000 l    df *ABS*	00000000 alt_iniche_dev.c
00000000 l    df *ABS*	00000000 alt_iniche_read.c
00000000 l    df *ABS*	00000000 alt_iniche_write.c
00000000 l    df *ABS*	00000000 ipnet.c
00000000 l    df *ABS*	00000000 ipstart.c
02060f30 l     O .bss	0000003c closers
020542d0 l     O .bss	00000004 nclosers
00000000 l    df *ABS*	00000000 igmp_cmn.c
00000000 l    df *ABS*	00000000 bsdsock.c
00000000 l    df *ABS*	00000000 cksum.c
02054190 l     O .rwdata	00000004 cksum_select
00000000 l    df *ABS*	00000000 in_utils.c
02060f6c l     O .bss	00000018 tistring
00000000 l    df *ABS*	00000000 netmain.c
00000000 l    df *ABS*	00000000 tk_crnos.c
00000000 l    df *ABS*	00000000 pktalloc.c
00000000 l    df *ABS*	00000000 q.c
00000000 l    df *ABS*	00000000 asm_cksum.o
020285c4 l       .text	00000000 done
02028454 l       .text	00000000 asm1
02028580 l       .text	00000000 loop0
0202847c l       .text	00000000 loop
0202859c l       .text	00000000 fold
00000000 l    df *ABS*	00000000 brdutils.c
02054304 l     O .bss	00000004 kbd_init.3831
02054300 l     O .bss	00000004 cpu_statusreg
00000000 l    df *ABS*	00000000 osportco.c
00000000 l    df *ABS*	00000000 targnios.c
00000000 l    df *ABS*	00000000 nptcp.c
02054338 l     O .bss	00000004 in_tcptick
00000000 l    df *ABS*	00000000 rawsock.c
00000000 l    df *ABS*	00000000 sockcall.c
0202c968 l     F .text	0000008c sockargs
0202bcc8 l     F .text	000001d4 t_getname
00000000 l    df *ABS*	00000000 socket.c
00000000 l    df *ABS*	00000000 socket2.c
00000000 l    df *ABS*	00000000 soselect.c
00000000 l    df *ABS*	00000000 tcp_in.c
00000000 l    df *ABS*	00000000 tcp_out.c
02034538 l     F .text	000000c8 bld_options
00000000 l    df *ABS*	00000000 tcp_subr.c
00000000 l    df *ABS*	00000000 tcp_timr.c
00000000 l    df *ABS*	00000000 tcp_usr.c
00000000 l    df *ABS*	00000000 tcpport.c
00000000 l    df *ABS*	00000000 udpsock.c
00000000 l    df *ABS*	00000000 alt_alarm_start.c
00000000 l    df *ABS*	00000000 alt_close.c
02036d8c l     F .text	00000050 alt_get_errno
00000000 l    df *ABS*	00000000 alt_dev.c
02036ea4 l     F .text	0000002c alt_dev_null_write
00000000 l    df *ABS*	00000000 alt_dev_llist_insert.c
02036ed0 l     F .text	00000050 alt_get_errno
00000000 l    df *ABS*	00000000 alt_do_ctors.c
00000000 l    df *ABS*	00000000 alt_do_dtors.c
00000000 l    df *ABS*	00000000 alt_errno.c
00000000 l    df *ABS*	00000000 alt_find_dev.c
00000000 l    df *ABS*	00000000 alt_find_file.c
00000000 l    df *ABS*	00000000 alt_fs_reg.c
00000000 l    df *ABS*	00000000 alt_get_fd.c
00000000 l    df *ABS*	00000000 alt_iic.c
00000000 l    df *ABS*	00000000 alt_iic_isr_register.c
00000000 l    df *ABS*	00000000 alt_io_redirect.c
02037664 l     F .text	000000c0 alt_open_fd
00000000 l    df *ABS*	00000000 alt_irq_vars.c
00000000 l    df *ABS*	00000000 alt_read.c
0203779c l     F .text	00000050 alt_get_errno
00000000 l    df *ABS*	00000000 alt_remap_cached.c
00000000 l    df *ABS*	00000000 alt_remap_uncached.c
00000000 l    df *ABS*	00000000 alt_uncached_malloc.c
00000000 l    df *ABS*	00000000 alt_write.c
020379a8 l     F .text	00000050 alt_get_errno
00000000 l    df *ABS*	00000000 altera_nios2_qsys_irq.c
00000000 l    df *ABS*	00000000 os_cpu_a.o
00000040 l       *ABS*	00000000 OSCtxSw_SWITCH_PC
00000000 l    df *ABS*	00000000 os_cpu_c.c
00000014 l       *ABS*	00000000 OSTCBNext_OFFSET
00000032 l       *ABS*	00000000 OSTCBPrio_OFFSET
00000000 l       *ABS*	00000000 OSTCBStkPtr_OFFSET
00000000 l    df *ABS*	00000000 altera_avalon_spi.c
00000000 l    df *ABS*	00000000 altera_avalon_tse.c
02054367 l     O .bss	00000001 tse_system_count.4451
02054366 l     O .bss	00000001 is_init.4533
00000000 l    df *ABS*	00000000 altera_avalon_tse_system_info.c
00000000 l    df *ABS*	00000000 allports.c
0205436c l     O .bss	00000004 inside_pktdemux
00000000 l    df *ABS*	00000000 timeouts.c
0203d76c l     F .text	00000198 check_interval_timers
02054378 l     O .bss	00000004 numtimers
00000000 l    df *ABS*	00000000 tk_misc.c
00000000 l    df *ABS*	00000000 alt_iniche_fcntl.c
00000000 l    df *ABS*	00000000 et_arp.c
0205437c l     O .bss	00000004 arp_timer
02054384 l     O .bss	00000004 cachetime
00000000 l    df *ABS*	00000000 iface.c
00000000 l    df *ABS*	00000000 ip.c
020541fc l     O .rwdata	00000004 uid
00000000 l    df *ABS*	00000000 ip_reasm.c
00000000 l    df *ABS*	00000000 ipdemux.c
00000000 l    df *ABS*	00000000 ipmc.c
00000000 l    df *ABS*	00000000 ipport.c
00000000 l    df *ABS*	00000000 ipraw.c
00000000 l    df *ABS*	00000000 iproute.c
00000000 l    df *ABS*	00000000 udp.c
020543c4 l     O .bss	00000002 usocket
00000000 l    df *ABS*	00000000 igmp.c
00000000 l    df *ABS*	00000000 igmp2.c
00000000 l    df *ABS*	00000000 ipopt.c
00000000 l    df *ABS*	00000000 u_mctest.c
02054204 l     O .rwdata	00000004 iCounter.4589
00000000 l    df *ABS*	00000000 memdev.c
00000000 l    df *ABS*	00000000 parseip.c
02060f84 l     O .bss	0000001e nearBuf.4216
00000000 l    df *ABS*	00000000 tcpcksum.c
00000000 l    df *ABS*	00000000 udp_open.c
00000000 l    df *ABS*	00000000 in_pcb.c
00000000 l    df *ABS*	00000000 vfsfiles.c
00000000 l    df *ABS*	00000000 vfsport.c
00000000 l    df *ABS*	00000000 alt_fcntl.c
0204a6b0 l     F .text	00000050 alt_get_errno
00000000 l    df *ABS*	00000000 alt_usleep.c
00000000 l    df *ABS*	00000000 icmp.c
02054090 l     O .rwdata	00000018 dsts
00000000 l    df *ABS*	00000000 alt_busy_sleep.c
00000000 l    df *ABS*	00000000 atexit.c
00000000 l    df *ABS*	00000000 calloc.c
00000000 l    df *ABS*	00000000 exit.c
00000000 l    df *ABS*	00000000 malloc.c
00000000 l    df *ABS*	00000000 vprintf.c
00000000 l    df *ABS*	00000000 vsprintf.c
00000000 l    df *ABS*	00000000 __atexit.c
00000000 l    df *ABS*	00000000 __call_atexit.c
00000000 l    df *ABS*	00000000 alt_exit.c
00000000 l    df *ABS*	00000000 
02006c14 g     F .text	0000001c putchar
0263db08 g     O .bss	00000014 soq
02060fa4 g     O .bss	005b8d88 upload_buf
0200f468 g     F .text	00000074 _mprec_log10
0203944c g     F .text	000000d8 alt_tse_get_mac_info
0205414e g     O .rwdata	00000002 OSTaskNameSize
0201ef70 g     F .text	0000008c alt_epcs_flash_get_info
0200f558 g     F .text	00000084 __any_on
0200e1f4 g     F .text	00000064 _isatty_r
0204deec g     O .rodata	00000028 __mprec_tinytens
0203f638 g     F .text	00000740 ip_write_internal
020153ec g     F .text	000000cc alt_main
0200756c g     F .text	00000094 strcpy
02014e44 g     F .text	00000044 __ashldi3
02028044 g     F .text	000000b0 pk_free
02006c30 g     F .text	00000084 _puts_r
0263dcb4 g     O .bss	00000100 alt_irq
020019e0 g     F .text	00000194 http_send_file_chunk
02053f30 g     O .rwdata	00000009 rtp_priority
0200e36c g     F .text	0000006c _lseek_r
0204b828 g     F .text	0000033c icmp_timex
02029678 g     F .text	00000040 m_freem
0204a1b0 g     F .text	00000048 vgetc
02028734 g     F .text	0000001c clock_c
02054350 g     O .bss	00000004 tcp_optionbuf
0203f15c g     F .text	0000007c if_getbynum
0201a904 g     F .text	000000d0 OS_MemInit
0202779c g     F .text	0000006c TK_OSTaskQuery
02028434 g       .text	00000000 asm_cksum
0203d024 g     F .text	000000f0 marvell_cfg_rgmii
0201e5d4 g     F .text	00000064 OSTimeSet
0204a0b8 g     F .text	000000f8 vgetc_locked
02028fb4 g     F .text	00000020 post_task_setup
02042d0c g     F .text	00000378 ipr_stats
02035d90 g     F .text	00000118 tcp_attach
020540b0 g     O .rwdata	00000008 sweep_field
0202aa5c g     F .text	000000c4 tcp_tick
02026a40 g     F .text	0000007c print_ipad
02027698 g     F .text	00000104 tcp_wakeup
0200db44 g     F .text	00000098 __sflags
02014120 g     F .text	0000005c __eqdf2
02054214 g     O .bss	00000004 last_flash_sector_offset
020542d4 g     O .bss	00000004 igmp_timers_are_running
02032f28 g     F .text	0000012c tcp_pulloutofband
0203a634 g     F .text	00000210 alt_tse_phy_print_profile
02015f38 g     F .text	0000063c OSEventPendMulti
0200084c g     F .text	00000030 print
0263e1bc g       *ABS*	00000000 __alt_heap_start
02037ec8 g     F .text	00000020 OSTaskCreateHook
02008764 g     F .text	00000008 strtok_r
0203cdc4 g     F .text	00000098 marvell_phy_cfg
020430d4 g     F .text	000003e0 ip_rcv
02049e5c g     F .text	0000014c vfseek
0202f0e0 g     F .text	00000108 soqremque
02044dcc g     F .text	00000818 udpdemux
02023664 g     F .text	00000104 tse_mac_close
02006a24 g     F .text	0000003c printf
02054398 g     O .bss	00000004 rt_mib
02054126 g     O .rwdata	00000002 OSMboxEn
0204bdf0 g     F .text	00000024 vsprintf
0202015c g     F .text	00000110 alt_avalon_sgdma_do_sync_transfer
020165c8 g     F .text	0000007c OSIntEnter
02001234 g     F .text	0000011c http_handle_accept
02007230 g     F .text	0000005c __sseek
0200492c g     F .text	0000010c __sinit
02043fdc g     F .text	00000108 in_delmulti
0200bf84 g     F .text	0000013c __swbuf_r
020543b0 g     O .bss	00000004 so_evtmap_create
02054136 g     O .rwdata	00000002 OSQEn
02048538 g     F .text	00000088 in_pcballoc
020541b0 g     O .rwdata	00000002 socket_defaults
0200e290 g     F .text	0000009c _setlocale_r
0203df6c g     F .text	00000458 send_arp
020048b8 g     F .text	00000064 __sfmoreglue
02048f78 g     F .text	00000338 vfopen_locked
02011f00 g     F .text	0000001c ungetc
02015c00 g     F .text	000000d4 __malloc_unlock
02037f24 g     F .text	0000001c OSTaskStatHook
0203d5b8 g     F .text	00000054 prep_modules
02619d2c g     O .bss	0000002a board_funcs
02026020 g     F .text	0000013c bsd_i_sockoptlen
0205426c g     O .bss	00000001 OSLockNesting
0200fd74 g     F .text	00001458 _strtod_r
02007600 g     F .text	00000664 strerror
02039690 g     F .text	00000a74 getPHYSpeed
020494bc g     F .text	00000040 vfclose
0263dba8 g     O .bss	0000002c tcb
02054174 g     O .rwdata	00000002 OSDataSize
020378dc g     F .text	00000034 alt_remap_cached
0205426d g     O .bss	00000001 OSRunning
0203eea0 g     F .text	000002bc grat_arp
020036e8 g     F .text	000001b0 get_ip_addr
02047ce0 g     F .text	00000094 inet_pton
0203f2ac g     F .text	00000090 reg_type
02024e00 g     F .text	00000224 igmp_fasttimo
0204966c g     F .text	00000058 vunlink_flag_open_files
02020848 g     F .text	00000344 alt_avalon_sgdma_construct_descriptor_burst
0263dbd4 g     O .bss	000000e0 tcpstat
020425c0 g     F .text	0000034c ip_reasm_copy_queued_fragments_into_reassy_buffer
02029bcc g     F .text	0000009c dtom
0203443c g     F .text	000000fc tcp_setpersist
0202c050 g     F .text	00000184 t_getsockopt
02006704 g     F .text	00000128 memmove
0202a01c g     F .text	000005c4 ip_output
02037f68 g     F .text	0000001c OSInitHookBegin
0204bb64 g     F .text	00000050 icmp_du
02054194 g     O .rwdata	00000004 num_net_tasks
020543d8 g     O .bss	00000004 vfiles
0205416c g     O .rwdata	00000002 OSTmrSize
0200491c g     F .text	00000010 _cleanup
02041794 g     F .text	000002b8 ip_reasm_process_first_fragment
0200e634 g     F .text	000000a8 _Balloc
020086c0 g     F .text	000000a4 __strtok_r
0200358c g     F .text	00000108 get_board_mac_addr
02054270 g     O .bss	00000004 OSIdleCtr
0203c038 g     F .text	000001bc alt_tse_phy_set_adv_1000
020541e4 g     O .rwdata	00000001 max_mac_system
020466cc g     F .text	000005cc ip_setmoptions
02038704 g     F .text	000009fc alt_tse_system_add_sys
020141d8 g     F .text	00000064 __gtdf2
020477fc g     F .text	0000002c md_fseek
02037bb0 g       .text	00000000 OSStartTsk
00000000  w      *UND*	00000000 __errno
02017a14 g     F .text	000002d8 OS_TCBInit
02021ae4 g     F .text	000000f8 epcs_sector_erase
02041a4c g     F .text	00000088 ip_reassm
020540c8 g     O .rwdata	00000008 flash_field
0263dfb4 g     O .bss	00000010 udp_mib
00000000 g     F .entry	00000000 __reset
0202c7dc g     F .text	000000d0 t_shutdown
0202c2b4 g     F .text	00000138 t_recvfrom
02000fcc g     F .text	000000cc http_reset_connection
02054172 g     O .rwdata	00000002 OSTmrWheelTblSize
02046e60 g     F .text	00000708 u_mctest_run
020203b8 g     F .text	00000074 alt_avalon_sgdma_construct_stream_to_mem_desc_burst
02044148 g     F .text	00000088 prep_ifaces
020542f0 g     O .bss	00000001 to_netmain
02027cec g     F .text	000000cc pk_alloc
02054112 g     O .rwdata	00000002 OSEventSize
02054274 g     O .bss	00000001 OSPrioHighRdy
0200581c g     F .text	00000068 _fstat_r
02053df8 g     O .rwdata	00000120 tse_mac_device
02027414 g     F .text	00000044 tk_nettick
02037ee8 g     F .text	00000020 OSTaskDelHook
020039c4 g     F .text	00000290 ProgFlash
0205422c g     O .bss	00000004 errno
02006f1c g     F .text	00000014 __srget
020302e0 g     F .text	000000c0 in_pcbnotify
0200bef0 g     F .text	00000024 __svfscanf
02037b90 g       .text	00000000 OSStartHighRdy
0263d79c g     O .bss	00000014 lilfreeq
02000204 g     F .text	00000648 alt_uCOSIIErrorHandler
020441f8 g     F .text	00000028 evtmap_setup
0201ce04 g     F .text	000001f4 OSTaskCreateExt
020542f4 g     O .bss	00000004 tcp_sleep_timeout
0202fa94 g     F .text	000001b8 sbdrop
020543ac g     O .bss	00000004 net_system_exit
0263dfc4 g     O .bss	00000068 icmp_mib
0203c90c g     F .text	000004b8 alt_tse_phy_set_common_speed
02034edc g     F .text	00000078 tcp_getseq
020445e0 g     F .text	000000c0 ip_raw_alloc
02018d9c g     F .text	00000068 OSFlagPendGetFlagsRdy
02054152 g     O .rwdata	00000002 OSTaskStatStkSize
0263ddb4 g     O .bss	00000010 pmac_groups
0202d968 g     F .text	00000740 soreceive
020149dc g     F .text	0000002c __make_fp
02017e78 g     F .text	00000308 OSFlagAccept
0201afdc g     F .text	000000b8 OSQFlush
0201a9d4 g     F .text	00000140 OSQAccept
0205424c g     O .bss	00000004 alt_argv
0205c0a8 g       *ABS*	00000000 _gp
02043084 g     F .text	00000050 ip_reasm_send_icmp_timex
0204a818 g     F .text	00000114 usleep
020494fc g     F .text	00000048 vfflush
0263dab0 g     O .bss	00000040 resid_semaphore
02026900 g     F .text	00000140 hexdump
0204165c g     F .text	000000a0 ip_reasm_incr_mem_useage
0202900c g     F .text	00000034 calloc2
02025528 g     F .text	0000007c igmp_leavegroup
0201cc48 g     F .text	000001bc OSTaskCreate
0201c720 g     F .text	00000528 OSTaskChangePrio
02054268 g     O .bss	00000004 alt_heapsem
02034d24 g     F .text	000000f0 tcp_close
02017cec g     F .text	0000018c OSDebugInit
0201cff8 g     F .text	000003dc OSTaskDel
0204a5d8 g     F .text	0000005c vferror
02037950 g     F .text	00000058 alt_uncached_malloc
02038210 g     F .text	00000060 tse_mac_initTransInfo2
02045a44 g     F .text	000000bc udp_alloc
02053c78 g     O .rwdata	00000180 alt_fd_list
02639f8c g     O .bss	00000370 OSFlagTbl
0205433c g     O .bss	00000008 mbstat
02005be8 g     F .text	00000070 _getc_r
02005c58 g     F .text	00000088 getc
02006c0c g     F .text	00000008 _putchar_r
02016ff4 g     F .text	000000b0 OS_EventTaskRemove
02021d20 g     F .text	00000068 epcs_write_status_register
020462fc g     F .text	00000148 igmpv2_chk_set_timer
02027458 g     F .text	0000002c TK_OSTimeDly
02037078 g     F .text	00000090 alt_find_dev
0200660c g     F .text	000000f8 memcpy
0203847c g     F .text	00000054 tse_mac_setMIImode
020128b8 g     F .text	0000028c __hexnan
0203db7c g     F .text	00000088 task_stats
0202b494 g     F .text	0000004c DOMAIN_CHECK
0202a5e0 g     F .text	00000038 in_broadcast
0205413c g     O .rwdata	00000002 OSRdyTblSize
0203a104 g     F .text	00000048 alt_tse_phy_rd_mdio_addr
020543d4 g     O .bss	00000004 vfsystems
02045974 g     F .text	000000d0 udp_socket
02000cfc g     F .text	0000027c file_upload
020542c4 g     O .bss	00000004 MaxMtu
0202ffc0 g     F .text	0000013c sock_selscan
020048ac g     F .text	0000000c _cleanup_r
02014358 g     F .text	000000d4 __floatsidf
02041434 g     F .text	000000c4 ip_reasm_match_frag_with_ire
0202f23c g     F .text	00000054 socantrcvmore
02038270 g     F .text	000000e0 tse_mac_sTxWrite
020069e4 g     F .text	00000014 perror
0203721c g     F .text	00000084 alt_fs_reg
02037724 g     F .text	00000078 alt_io_redirect
020142a0 g     F .text	0000005c __ltdf2
02054318 g     O .bss	00000004 netq_intmask
02047c94 g     F .text	0000004c hextoa
0204c128 g       *ABS*	00000000 __DTOR_END__
0202c5d8 g     F .text	00000204 t_send
02036ddc g     F .text	000000c8 alt_close
02054344 g     O .bss	00000002 select_wait
02006cb4 g     F .text	00000014 puts
02026f7c g     F .text	00000044 std_out
02021668 g     F .text	00000090 alt_ro_zipfs_open
0263d290 g     O .bss	00000030 tse_iniche_dev_driver_data
0204a1f8 g     F .text	00000124 vfslookup_locked
0202d224 g     F .text	00000098 soaccept
02015cd4 g     F .text	00000120 OSEventNameGet
02054120 g     O .rwdata	00000002 OSFlagMax
0200e43c g     F .text	00000040 mbrtowc
0263db1c g     O .bss	0000003c tcpmib
0202c9f4 g     F .text	00000098 t_errno
02044220 g     F .text	000000e0 ip_raw_open
0201f104 g     F .text	00000104 alt_epcs_flash_write_block
0200bea4 g     F .text	0000004c _vfscanf_r
0200f3c4 g     F .text	000000a4 __ratio
02016644 g     F .text	000000f4 OSIntExit
02054200 g     O .rwdata	00000004 ipRoutes
0204961c g     F .text	00000050 vfeof
020351d8 g     F .text	0000005c tcp_canceltimers
0205415a g     O .rwdata	00000002 OSTCBSize
020204a8 g     F .text	00000088 alt_avalon_sgdma_construct_mem_to_stream_desc_burst
02054275 g     O .bss	00000001 OSPrioCur
0201fa54 g     F .text	000002c4 altera_avalon_jtag_uart_read
0204bd44 g     F .text	00000014 malloc
020543d0 g     O .bss	00000004 inpcb_cachemiss
020069f8 g     F .text	0000002c _printf_r
02047e50 g     F .text	000000c0 inet46_addr
020543cc g     O .bss	00000004 inpcb_cachehits
0201479c g     F .text	00000008 __udivsi3
02053c38 g     O .rwdata	0000000b tcp_outflags
0263d2c0 g     O .bss	00000130 tse
0201522c g     F .text	000000a0 isatty
02039100 g     F .text	00000164 alt_tse_sys_enable_mdio_sharing
02054140 g     O .rwdata	00000002 OSStkWidth
0200e258 g     F .text	00000038 iswspace
0204df3c g     O .rodata	000000c8 __mprec_tens
02048df4 g     F .text	00000070 vf_alloc_and_link_vop
02054134 g     O .rwdata	00000002 OSPtrSize
0205439c g     O .bss	00000004 ipr_curr_mem
02024a74 g     F .text	0000006c exit_hook
020393cc g     F .text	00000080 alt_tse_get_mac_info_index
020542d8 g     O .bss	00000004 igmp_cticks
0205432c g     O .bss	00000004 mheap_sem_ptr
020332dc g     F .text	0000004c ip4_tcpmss
0200e32c g     F .text	0000000c __locale_charset
02002914 g     F .text	000003c4 http_handle_receive
02054114 g     O .rwdata	00000002 OSEventTblSize
0263df38 g     O .bss	00000014 netlist
0202e0a8 g     F .text	00000098 soshutdown
02012ba4 g     F .text	00000084 __fixunsdfsi
02037b04 g       .text	00000000 OSCtxSw
0203d544 g     F .text	00000050 packet_check
0263db58 g     O .bss	00000014 mbufq
0202d1d4 g     F .text	00000050 soabort
02054238 g     O .bss	00000004 __malloc_top_pad
02001500 g     F .text	00000214 http_process_headers
02054278 g     O .bss	00000004 OSTCBList
02028334 g     F .text	00000100 qdel
0203d310 g     F .text	000001a0 station_state
02044738 g     F .text	00000174 rt_lookup
0205435c g     O .bss	00000004 alt_fd_list_lock
020118bc g     F .text	00000024 strtoul
020540e4 g     O .rwdata	00000004 __mb_cur_max
020255a4 g     F .text	00000314 igmp_validate
0200e338 g     F .text	0000000c _localeconv_r
020247d0 g     F .text	000002a4 ip_startup
020118e0 g     F .text	00000394 _strtoull_r
0202b78c g     F .text	0000024c t_accept
0202ecc4 g     F .text	00000094 soisdisconnecting
0200ea34 g     F .text	0000003c __i2b
0200dd10 g     F .text	000004e4 __sfvwrite_r
020205d4 g     F .text	00000058 alt_avalon_sgdma_stop
020241dc g     F .text	000003ac pktdemux
0263a2fc g     O .bss	00000c30 OSMemTbl
0205427c g     O .bss	00000001 OSTickStepState
0203a1a4 g     F .text	0000012c alt_tse_phy_wr_mdio_reg
020285f8 g     F .text	0000009c kbhit
0202be9c g     F .text	000001b4 t_setsockopt
02006f30 g     F .text	00000064 _sbrk_r
02053f18 g     O .rwdata	00000018 icmpdu_types
0203a844 g     F .text	0000069c alt_tse_mac_group_init
020496c4 g     F .text	00000200 vunlink
02022404 g     F .text	00000a84 tse_mac_init
02631e8c g     O .bss	00002000 SSDTaskStk
0205421c g     O .bss	00000004 line_count
02054138 g     O .rwdata	00000002 OSQMax
0202675c g     F .text	000000a8 ccksum
02048e64 g     F .text	000000c8 vf_alloc_buffer
020543c0 g     O .bss	00000004 cachedRoute
02054198 g     O .rwdata	00000004 lilbufs
0263af2c g     O .bss	00000800 OSTaskStatStk
02047828 g     F .text	00000024 md_ftell
02026804 g     F .text	00000054 cksum
0201a530 g     F .text	000000f8 OSMemNameGet
0202cd6c g     F .text	00000120 sofree
020542cc g     O .bss	00000004 ifNumber
02054118 g     O .rwdata	00000002 OSFlagEn
0200f5dc g     F .text	0000006c _read_r
0205415e g     O .rwdata	00000002 OSTimeTickHookEn
02014fb4 g     F .text	00000074 alt_dcache_flush
0201b504 g     F .text	00000168 OSQPost
0201960c g     F .text	000000a0 OS_FlagUnlink
020529c8 g     O .rwdata	0000000c __lc_ctype
020541d8 g     O .rwdata	00000004 alt_max_fd
020175bc g     F .text	0000006c OS_MemCopy
020541a0 g     O .rwdata	00000004 bigbufs
02035ea8 g     F .text	000000cc tcp_disconnect
02017628 g     F .text	000000cc OS_Sched
02014c2c g     F .text	00000104 __unpack_d
020044ec g     F .text	0000013c _fclose_r
0201a440 g     F .text	000000f0 OSMemGet
0201a134 g     F .text	00000118 OSMboxQuery
020022d4 g     F .text	00000268 http_find_file
0201d6d4 g     F .text	000001c4 OSTaskNameSet
02000aac g     F .text	00000250 http_parse_multipart_header
02004824 g     F .text	00000030 fflush
02054234 g     O .bss	00000004 __malloc_max_sbrked_mem
02054280 g     O .bss	00000004 OSCtxSwCtr
0263d714 g     O .bss	00000064 igmpstats
02037f40 g     F .text	00000028 OSTimeTickHook
0202615c g     F .text	00000104 bsd_getsockopt
02054122 g     O .rwdata	00000002 OSFlagNameSize
0263df9c g     O .bss	00000018 ire_stats
020360ec g     F .text	000001a0 udp_soinput
02028288 g     F .text	000000ac putq
020170a4 g     F .text	000000f8 OS_EventTaskRemoveMulti
020542ec g     O .bss	00000004 iniche_net_ready
02013bd4 g     F .text	00000054 __adddf3
02016eac g     F .text	00000148 OS_EventTaskWaitMulti
0204a590 g     F .text	00000048 isvfile
0202e238 g     F .text	00000430 sosetopt
020272ac g     F .text	000000e0 netmain
02033328 g     F .text	000000f8 tcp_mss
0201f090 g     F .text	00000074 alt_epcs_flash_erase_block
0200f138 g     F .text	00000148 __b2d
02047938 g     F .text	000002fc parse_ipad
02048dd4 g     F .text	00000020 get_vfopen_error
0205413a g     O .rwdata	00000002 OSQSize
020131f0 g     F .text	0000058c __umoddi3
0201531c g     F .text	000000d0 lseek
0203d60c g     F .text	00000160 inet_timer
0201c018 g     F .text	0000026c OSSemPend
020540b8 g     O .rwdata	00000008 lcd_field
0203a39c g     F .text	00000298 alt_tse_phy_add_profile_default
0203baa0 g     F .text	00000598 alt_tse_phy_get_cap
020540d4 g     O .rwdata	00000004 _global_impure_ptr
02026c3c g     F .text	00000158 print_eth
02021fe4 g     F .text	00000058 epcs_exit_4_bytes_mode
020492b0 g     F .text	00000050 vfopen
020377ec g     F .text	000000f0 alt_read
0200f648 g     F .text	000005fc _realloc_r
02054124 g     O .rwdata	00000002 OSLowestPrio
0263e1bc g       *ABS*	00000000 __bss_end
02037574 g     F .text	000000f0 alt_iic_isr_register
02020038 g     F .text	00000124 alt_avalon_sgdma_do_async_transfer
02029560 g     F .text	00000118 m_free
02037fbc g     F .text	00000020 OSTCBInitHook
02023624 g     F .text	00000040 tse_mac_stats
02027db8 g     F .text	0000028c pk_validate
0205416a g     O .rwdata	00000002 OSTmrCfgTicksPerSec
020158d0 g     F .text	00000104 alt_tick
02048b58 g     F .text	00000254 in_pcblookup
02019ec8 g     F .text	00000110 OSMboxPost
02639e8c g     O .bss	00000100 __hexdig
02012c28 g     F .text	000005c8 __udivdi3
020293d8 g     F .text	00000188 m_getnbuf
02028114 g     F .text	000000bc dump_buf_estats
0203b940 g     F .text	00000160 alt_tse_phy_check_link
02054394 g     O .bss	00000004 arpRepsOut
0205410c g     O .rwdata	00000002 OSEventEn
0204df14 g     O .rodata	00000028 __mprec_bigtens
0200e818 g     F .text	00000104 __s2b
02054166 g     O .rwdata	00000002 OSTmrCfgNameSize
02014560 g     F .text	0000011c __floatunsidf
0203d18c g     F .text	000000f4 netmain_init
0203cf40 g     F .text	000000e4 marvell_cfg_sgmii
0203b77c g     F .text	000001c4 alt_tse_phy_restart_an
0200eed8 g     F .text	00000058 __mcmp
02034760 g     F .text	0000040c tcp_respond
020364cc g     F .text	000002dc udp4_sockbind
020540d0 g     O .rwdata	00000004 __ctype_ptr
0205431c g     O .bss	00000004 old_mode
020252cc g     F .text	0000025c igmp_joingroup
0202a70c g     F .text	00000350 so_icmpdu
02004b44 g     F .text	00000018 __fp_lock_all
020543e4 g     O .bss	00000004 vfs_dir_stale
02037528 g     F .text	0000004c alt_ic_irq_enabled
0263ddc4 g     O .bss	00000010 pphy_profiles
0204290c g     F .text	0000011c ip_reasm_process_timer_tick
0204a634 g     F .text	00000058 vclearerr
02026688 g     F .text	000000d4 bsd_setsockopt
02029b78 g     F .text	00000054 mbuf_len
0201941c g     F .text	000000e4 OS_FlagInit
02015838 g     F .text	00000098 alt_alarm_stop
0204a364 g     F .text	000001d4 strippath
020274f4 g     F .text	000001a4 tcp_sleep
020089d0 g     F .text	00000024 strtol
02035f74 g     F .text	000000d4 tcp_usrclosed
00001c00 g       *ABS*	00000000 __alt_mem_descriptor_memory
02054308 g     O .bss	00000004 cticks_factor
02054148 g     O .rwdata	00000002 OSTaskIdleStkSize
02048614 g     F .text	00000210 in_pcbbind
02054360 g     O .bss	00000004 alt_irq_active
0201bbf8 g     F .text	000000b0 OSSemAccept
0201a744 g     F .text	000000d8 OSMemPut
0202180c g     F .text	0000013c alt_ro_zipfs_seek
0201a24c g     F .text	000001f4 OSMemCreate
02054284 g     O .bss	00000004 OSIdleCtrMax
020000ec g     F .exceptions	000000d0 alt_irq_handler
02053c50 g     O .rwdata	00000028 alt_dev_null
020541b2 g     O .rwdata	00000001 tcprexmtthresh
0205415c g     O .rwdata	00000002 OSTicksPerSec
0203f33c g     F .text	00000090 if_killsocks
0203fd78 g     F .text	00000218 ip_write
020434b4 g     F .text	000005dc ip_rcv_phase2
0202bc84 g     F .text	00000044 t_getsockname
0202b9d8 g     F .text	00000268 t_connect
020541ac g     O .rwdata	00000004 TCPTV_MSL
0263d7b0 g     O .bss	00000010 memestats
02001098 g     F .text	0000019c http_manage_connection
0203b664 g     F .text	00000118 alt_tse_phy_init
02028694 g     F .text	00000064 getch
02014858 g     F .text	000000c8 __unpack_f
02054010 g     O .rwdata	00000080 vfs_root_path
0202bc40 g     F .text	00000044 t_getpeername
020043bc g     F .text	00000098 board_control_task
0202062c g     F .text	00000064 alt_avalon_sgdma_check_descriptor_status
020416fc g     F .text	00000098 ip_reasm_decr_mem_useage
0202f3c4 g     F .text	00000088 soreserve
02003f00 g     F .text	000002d4 ParseSRECBuf
02037b04 g       .text	00000000 OSIntCtxSw
020028a4 g     F .text	00000070 http_prepare_response
02029040 g     F .text	000000ec npalloc
02004854 g     F .text	0000002c _fgetpos_r
0200e91c g     F .text	00000068 __hi0bits
020543bc g     O .bss	00000004 ipraw_eps
02027a58 g     F .text	00000294 pk_init
02047628 g     F .text	0000015c md_fread
0204bcf0 g     F .text	0000001c calloc
02022e88 g     F .text	000002f8 tse_mac_raw_send
0201442c g     F .text	000000d4 __fixdfsi
020009e4 g     F .text	000000c8 lcd_output
0263ddd4 g     O .bss	00000064 intimers
0202f49c g     F .text	00000048 sbrelease
0203041c g     F .text	000000f0 ifd_clr
0202fd48 g     F .text	0000008c sbdroprecord
02026d94 g     F .text	0000007c uslash
020379f8 g     F .text	000000ec alt_write
02000f78 g     F .text	00000054 ProgFlashStub
02054390 g     O .bss	00000004 arpRepsIn
0203d904 g     F .text	000001b8 in_timerset
020111cc g     F .text	0000001c strtod
02054288 g     O .bss	00000004 OSTCBFreeList
0201c284 g     F .text	00000174 OSSemPendAbort
02033420 g     F .text	0000101c tcp_output
02054368 g     O .bss	00000004 activehost
020541d0 g     O .rwdata	00000008 alt_dev_list
0202709c g     F .text	00000210 parse_args
02054320 g     O .bss	00000004 global_TCPwakeup_setIndx
0200dbdc g     F .text	00000044 _fputc_r
02023948 g     F .text	00000068 write
02020768 g     F .text	00000080 alt_avalon_sgdma_enable_desc_poll
0202912c g     F .text	000000c0 npfree
02006a60 g     F .text	000000bc _putc_r
0203e678 g     F .text	000002c4 arpReply
02026884 g     F .text	0000007c nextarg
02054160 g     O .rwdata	00000002 OSVersionNbr
02042038 g     F .text	00000530 ip_reasm_process_subsequent_fragments
0205420c g     O .rwdata	00000004 pton_error
020137d0 g     F .text	0000005c __gtsf2
0263d3f0 g     O .bss	00000014 rcvdq
020303a0 g     F .text	0000007c tcp_notify
02015130 g     F .text	000000ac fstat
02004ce8 g     F .text	00000024 fprintf
0202d2bc g     F .text	000000b8 soconnect
020446e0 g     F .text	00000058 ip_raw_maxalloc
02014e00 g     F .text	00000044 __lshrdi3
02619d56 g     O .bss	0000c000 http_rx_buffer
020142fc g     F .text	0000005c __ledf2
0203d114 g     F .text	00000078 DP83848C_link_status_read
02007348 g     F .text	00000098 strcat
02048ad8 g     F .text	00000080 in_setpeeraddr
02054108 g     O .rwdata	00000004 OSEndiannessTest
020286f8 g     F .text	0000003c clock_init
02049544 g     F .text	000000d8 vfgets
0203dcec g     F .text	0000018c et_send
0200ec50 g     F .text	0000012c __pow5mult
02054244 g     O .bss	00000004 __nlocale_changed
020147a4 g     F .text	00000008 __umodsi3
02047c34 g     F .text	00000060 inet_addr
020415c8 g     F .text	00000094 ip_reasm_check_mem_useage
0202e140 g     F .text	000000f8 sorflush
0204bd6c g     F .text	00000020 vprintf
0263d8c4 g     O .bss	000000fc global_tcb_ext
020403cc g     F .text	00000418 ip_fragment_lc
0263d404 g     O .bss	00000300 netstatic
02021ea4 g     F .text	00000068 epcs_read_electronic_signature
0202b560 g     F .text	0000015c t_bind
0202042c g     F .text	0000007c alt_avalon_sgdma_construct_mem_to_stream_desc
0205411a g     O .rwdata	00000002 OSFlagGrpSize
02048460 g     F .text	000000d8 udp_close
02020530 g     F .text	00000050 alt_avalon_sgdma_register_callback
02028d44 g     F .text	000001fc alt_iniche_init
0263e1bc g       *ABS*	00000000 end
0202895c g     F .text	00000084 UNLOCK_NET_RESOURCE
02022180 g     F .text	00000284 prep_tse_mac
0202c1d4 g     F .text	000000e0 t_recv
02014e88 g     F .text	0000012c __pack_f
020498c4 g     F .text	0000018c vfread
020240f8 g     F .text	000000e4 netclose
020044e0 g     F .text	0000000c _atoi_r
02038520 g     F .text	000001e4 alt_tse_phy_add_profile
020057f8 g     F .text	00000024 fseek
020541bc g     O .rwdata	00000004 tcp_keepintvl
0201f404 g     F .text	0000013c altera_avalon_jtag_uart_init
02017890 g     F .text	000000bc OS_TaskStat
02054178 g     O .rwdata	00000004 tse_mac_name
02053bf0 g     O .rwdata	00000018 tcp_protosw
0204c128 g       *ABS*	00000000 __CTOR_LIST__
020543e0 g     O .bss	00000004 vfopen_error
04000000 g       *ABS*	00000000 __alt_stack_pointer
02054354 g     O .bss	00000004 tcp_maxidle
020543c8 g     O .bss	00000004 firstudp
020207e8 g     F .text	00000060 alt_avalon_sgdma_disable_desc_poll
02020d5c g     F .text	00000088 alt_avalon_timer_sc_init
020147ac g     F .text	000000ac __clzsi2
0201fd18 g     F .text	000002d0 altera_avalon_jtag_uart_write
0202026c g     F .text	00000070 alt_avalon_sgdma_construct_mem_to_mem_desc
02004b34 g     F .text	00000004 __sfp_lock_acquire
0200e4c0 g     F .text	000000f8 memchr
02017568 g     F .text	00000054 OS_MemClr
02008a30 g     F .text	00001df8 ___vfprintf_internal_r
02037bd4 g     F .text	000002f4 OSTaskStkInit
02625d58 g     O .bss	00000030 flash_inf
02006f94 g     F .text	00000058 _sprintf_r
0202035c g     F .text	0000005c alt_avalon_sgdma_construct_stream_to_mem_desc
020050b4 g     F .text	000002d0 _free_r
02046444 g     F .text	00000140 igmpv2_chk4_rtr_alert_opt
02002cd8 g     F .text	00000060 http_handle_transmit
0202c8ac g     F .text	000000bc t_socketclose
02016c0c g     F .text	00000198 OS_EventTaskRdy
0204bf44 g     F .text	000001a0 __call_exitprocs
02006ed0 g     F .text	0000004c __srget_r
02001400 g     F .text	00000100 http_parse_type_boundary
02023180 g     F .text	000000b0 tse_sgdmaRx_isr
0205428c g     O .bss	00000001 OSCPUUsage
0263d704 g     O .bss	00000010 nets
02028898 g     F .text	000000c4 LOCK_NET_RESOURCE
02054240 g     O .bss	00000004 __mlocale_changed
020233e0 g     F .text	00000244 tse_mac_rcv
0202b4e0 g     F .text	00000080 t_socket
020540dc g     O .rwdata	00000004 __malloc_sbrk_base
020001bc g     F .text	00000048 _start
0203dca4 g     F .text	00000048 etainit
02054254 g     O .bss	00000004 _alt_tick_rate
0203d594 g     F .text	00000024 mcastlist
0201b094 g     F .text	000002fc OSQPend
02008334 g     F .text	00000374 strstr
0263d7c0 g     O .bss	000000f0 pktlog
02011308 g     F .text	00000330 _strtoll_r
02045f80 g     F .text	00000140 igmpv2_process_report
02030580 g     F .text	00000078 ifd_isset
02044c98 g     F .text	00000134 del_route
02020690 g     F .text	00000050 alt_avalon_sgdma_open
020089f4 g     F .text	00000008 _user_strerror
0201e00c g     F .text	00000148 OSTimeDly
02003694 g     F .text	00000054 get_mac_addr
0202cc9c g     F .text	000000d0 solisten
02002d38 g     F .text	00000354 WSTask
0200ed7c g     F .text	0000015c __lshift
02037fdc g     F .text	00000208 alt_avalon_spi_command
02054258 g     O .bss	00000004 _alt_nticks
0203a2d0 g     F .text	000000cc alt_tse_phy_rd_mdio_reg
020238d8 g     F .text	00000070 read
0201e6a4 g     F .text	0000026c alt_sys_init
02034e14 g     F .text	00000048 tcp_quench
02631d88 g     O .bss	00000104 frag
02026e10 g     F .text	0000016c ns_printf
02006908 g     F .text	0000006c _open_r
0203f1d8 g     F .text	000000d4 isbcast
020289e0 g     F .text	00000230 TK_NEWTASK
0204be14 g     F .text	00000130 __register_exitproc
0205428d g     O .bss	00000001 OSTaskCtr
020414f8 g     F .text	000000d0 ip_reasm_determine_type_of_frag
02054364 g     O .bss	00000001 phy_profile_count
02007cf0 g     F .text	000000fc strncmp
02039358 g     F .text	00000074 alt_tse_get_mac_group_index
0201e154 g     F .text	00000230 OSTimeDlyHMSM
02037910 g     F .text	00000040 alt_remap_uncached
02044300 g     F .text	000000bc ip_raw_close
0200ea70 g     F .text	000001e0 __multiply
02053f60 g     O .rwdata	000000b0 mdlist
0201f8f8 g     F .text	00000068 altera_avalon_jtag_uart_close
02024d20 g     F .text	000000e0 igmp_input
02040308 g     F .text	000000c4 ip_raw_write
02049a50 g     F .text	000003ac vfwrite_locked
02007dec g     F .text	000000b8 strncpy
02060f08 g     O .bss	00000028 __malloc_current_mallinfo
0205410e g     O .rwdata	00000002 OSEventMax
02047f10 g     F .text	00000068 inet_setport
0201377c g     F .text	00000054 __eqsf2
0200f280 g     F .text	00000144 __d2b
0201c3f8 g     F .text	00000110 OSSemPost
02007294 g     F .text	000000b4 strcasecmp
02032da8 g     F .text	00000180 tcp_dooptions
02021a18 g     F .text	0000005c epcs_read_status_register
0202ebc4 g     F .text	00000100 soisconnected
020167c0 g     F .text	000000d8 OSSchedUnlock
020441d0 g     F .text	00000028 netexit
020030bc g     F .text	000001d0 get_serial_number
020542e8 g     O .bss	00000004 nettick_wakes
0203a14c g     F .text	00000058 alt_tse_phy_wr_mdio_addr
02054348 g     O .bss	00000001 tcpprintfs
0203dabc g     F .text	0000009c in_timerkill
02045e38 g     F .text	00000148 igmpv2_input
0201f2a0 g     F .text	00000060 altera_avalon_jtag_uart_read_fd
02011638 g     F .text	00000284 _strtoul_r
02026858 g     F .text	0000002c do_trap
020372a0 g     F .text	000000fc alt_get_fd
02026260 g     F .text	000000ec bsd_ioctl
02054290 g     O .bss	00000004 OSMemFreeList
02016904 g     F .text	000000ac OSStatInit
02029e58 g     F .text	000001c4 tcp_rcv
02026bf8 g     F .text	00000044 panic
0204bbb4 g     F .text	00000128 alt_busy_sleep
020543e8 g     O .bss	00000004 vfs_open_files
02024640 g     F .text	00000190 ip2mac
02019198 g     F .text	000000c4 OSFlagQuery
02014d30 g     F .text	000000d0 __fpcmp_parts_d
020300fc g     F .text	000001e4 sock_select
02034600 g     F .text	00000058 tcp_init
02054324 g     O .bss	00000004 cticks
020542f1 g     O .bss	00000001 to_nettick
02054144 g     O .rwdata	00000002 OSTaskCreateExtEn
0200c2bc g     F .text	00000064 _close_r
020239b0 g     F .text	000005f0 Netinit
02028fd4 g     F .text	00000038 prep_armintcp
02043e90 g     F .text	0000014c in_addmulti
02034658 g     F .text	00000108 tcp_template
02633e8c g     O .bss	00002000 WSInitialTaskStk
0203c5e4 g     F .text	00000328 alt_tse_phy_get_common_speed
02029c68 g     F .text	00000070 remque
020086a8 g     F .text	00000018 strtok
0204bd8c g     F .text	00000014 _vprintf_r
0203065c g     F .text	0000040c tcp_reass
020480ac g     F .text	0000019c tcp_cksum
020367a8 g     F .text	0000037c udp4_socksend
02021f0c g     F .text	00000080 epcs_read_device_id
02049300 g     F .text	000001bc vfclose_locked
0203050c g     F .text	00000074 ifd_set
0200e5b8 g     F .text	0000007c memcmp
02016bf0 g     F .text	0000001c OS_Dummy
0201f360 g     F .text	00000050 altera_avalon_jtag_uart_close_fd
020542c8 g     O .bss	00000004 NDEBUG
0263e1bc g       *ABS*	00000000 __alt_stack_base
02054218 g     O .bss	00000004 last_flash_sector
0201f3b0 g     F .text	00000054 altera_avalon_jtag_uart_ioctl_fd
0202f44c g     F .text	00000050 sbreserve
02054365 g     O .bss	00000001 mac_group_count
020443bc g     F .text	00000224 ip_raw_input
02005b08 g     F .text	000000a0 _fwrite_r
0205419c g     O .rwdata	00000004 lilbufsiz
020305f8 g     F .text	00000064 ifd_get
0202f330 g     F .text	00000094 sbwakeup
02007060 g     F .text	0000007c sscanf
0200c148 g     F .text	00000174 __swsetup_r
0202203c g     F .text	00000144 altera_eth_tse_init
0263b72c g     O .bss	000001e0 OSQTbl
02033054 g     F .text	00000288 tcp_xmit_timer
02023230 g     F .text	000001b0 tse_sgdma_read_init
02013f6c g     F .text	000001b4 __divdf3
02004a38 g     F .text	000000fc __sfp
0200344c g     F .text	00000140 generate_mac_addr
0203f4b4 g     F .text	00000184 ip_bldhead
0200f4dc g     F .text	0000007c __copybits
0202f4e4 g     F .text	000000a0 sbappend
020525c0 g     O .rwdata	00000408 __malloc_av_
02004b40 g     F .text	00000004 __sinit_lock_release
02054294 g     O .bss	00000004 OSTCBHighRdy
02013c88 g     F .text	000002e4 __muldf3
00000000 g       *ABS*	00000000 __alt_mem_epcs_flash_controller
0203ff90 g     F .text	00000378 ip_write2
02007154 g     F .text	00000054 __sread
020541f8 g     O .rwdata	00000004 arp_ageout
02004f38 g     F .text	00000040 fread
02054298 g     O .bss	00000004 OSQFreeList
0203aee0 g     F .text	0000041c alt_tse_mac_get_phy
0203f3cc g     F .text	000000e8 ip_init
02037108 g     F .text	00000114 alt_find_file
020446a0 g     F .text	00000040 ip_raw_free
0203e578 g     F .text	00000100 make_arp_entry
02036f20 g     F .text	000000a0 alt_dev_llist_insert
02015aec g     F .text	00000114 __malloc_lock
02004cc0 g     F .text	00000028 _fprintf_r
02015788 g     F .text	000000b0 sbrk
02036088 g     F .text	00000064 udp_lookup
02020580 g     F .text	00000054 alt_avalon_sgdma_start
02003c54 g     F .text	000002ac ParseAndProgramLine
02015df4 g     F .text	00000144 OSEventNameSet
0200463c g     F .text	000001e8 _fflush_r
02039604 g     F .text	0000008c alt_tse_mac_set_duplex
02011f1c g     F .text	000000bc _calloc_r
0205429c g     O .bss	00000001 OSRdyGrp
020475e0 g     F .text	00000028 md_fopen
02053c08 g     O .rwdata	00000018 udp_protosw
020540e8 g     O .rwdata	00000008 alt_flash_dev_list
02048a58 g     F .text	00000080 in_setsockaddr
02004ca4 g     F .text	0000001c fopen
02054214 g       *ABS*	00000000 __bss_start
0202f584 g     F .text	000000d8 sbappendrecord
020041d4 g     F .text	00000078 WSInitialTask
0263df4c g     O .bss	00000050 ip_mib
0200682c g     F .text	000000dc memset
0202d374 g     F .text	00000098 sodisconnect
0200424c g     F .text	00000090 main
02054250 g     O .bss	00000004 alt_envp
02054230 g     O .bss	00000004 __malloc_max_total_mem
020299a8 g     F .text	000001d0 m_adj
0201f300 g     F .text	00000060 altera_avalon_jtag_uart_write_fd
02005994 g     F .text	00000014 ftell
0200c0c0 g     F .text	0000001c __swbuf
0204784c g     F .text	000000c8 md_fgetc
0204e188 g     O .rodata	00000100 OSUnMapTbl
02040e3c g     F .text	000002a8 ip_dump
02027834 g     F .text	00000224 tk_stats
0201382c g     F .text	00000054 __ltsf2
02004d0c g     F .text	0000022c _fread_r
02054184 g     O .rwdata	00000008 alt_iniche_dev_list
0205417c g     O .rwdata	00000008 alt_sgdma_list
0205413e g     O .rwdata	00000002 OSSemEn
0205430c g     O .bss	00000004 OS_TPS
0202ad4c g     F .text	00000748 rawip_usrreq
02018e04 g     F .text	00000394 OSFlagPost
0200728c g     F .text	00000008 __sclose
02047df4 g     F .text	0000005c print46_addr
04000000 g       *ABS*	00000000 __alt_heap_limit
02004628 g     F .text	00000014 fclose
02016da4 g     F .text	00000108 OS_EventTaskWait
02014500 g     F .text	00000060 __truncdfsf2
0200876c g     F .text	00000264 _strtol_r
02026abc g     F .text	0000013c print_uptime
0201794c g     F .text	000000c8 OS_TaskStatStkChk
0263e02c g     O .bss	00000190 _atexit0
0201d3d4 g     F .text	00000158 OSTaskDelReq
0200c528 g     F .text	0000161c _dtoa_r
02005e88 g     F .text	00000784 _malloc_r
02047914 g     F .text	00000024 md_unlink
020383f4 g     F .text	00000088 tse_mac_SwReset
020485c0 g     F .text	00000054 in_pcbdetach
020541dc g     O .rwdata	00000004 alt_errno
02054220 g     O .bss	00000004 current_flash_block
0200087c g     F .text	000000e4 sweep
02054208 g     O .rwdata	00000004 mdlist_size
02016898 g     F .text	0000006c OSStart
02011c74 g     F .text	000000f0 __submore
02046e30 g     F .text	00000030 u_mctest_init
02015a8c g     F .text	00000060 __env_unlock
020059a8 g     F .text	000000a8 _fwalk
02004880 g     F .text	0000001c fgetpos
0201d898 g     F .text	000001f4 OSTaskResume
0201a81c g     F .text	000000e8 OSMemQuery
02047f78 g     F .text	00000134 convert_ip
0203e3c4 g     F .text	000001b4 find_oldest_arp
02054150 g     O .rwdata	00000002 OSTaskStatEn
02054388 g     O .bss	00000004 arpReqsIn
02048f2c g     F .text	0000004c vf_free_buffer
0200e47c g     F .text	00000044 _mbtowc_r
0204a700 g     F .text	00000118 alt_fcntl
0205412a g     O .rwdata	00000002 OSMemMax
0201b66c g     F .text	00000170 OSQPostFront
020285c8 g     F .text	00000030 dtrap
020541a8 g     O .rwdata	00000004 kb_last
02006b1c g     F .text	000000f0 putc
020146f0 g     F .text	00000050 __divsi3
020392a4 g     F .text	00000048 alt_tse_mac_set_common_speed
0205429d g     O .bss	00000003 OSRdyTbl
02054104 g     O .rwdata	00000002 OSDebugEn
020216f8 g     F .text	00000114 alt_ro_zipfs_read
0204e064 g     O .rodata	00000014 __thenan_df
02024ae0 g     F .text	000000cc ip_exit
02004f78 g     F .text	0000013c _malloc_trim_r
02001350 g     F .text	000000b0 http_read_line
0204c128 g       *ABS*	00000000 __CTOR_END__
020219c0 g     F .text	00000058 alt_ro_zipfs_check_valid
0205411c g     O .rwdata	00000002 OSFlagNodeSize
02028750 g     F .text	000000ac cticks_hook
02054164 g     O .rwdata	00000002 OSTmrCfgMax
0203d4b0 g     F .text	00000094 sysuptime
0201ed10 g     F .text	00000260 alt_epcs_flash_write
020074c8 g     F .text	000000a4 strcmp
0200328c g     F .text	000001c0 generate_and_store_mac_addr
02042a28 g     F .text	000001b4 ip_reasm_delete_ire
0201ab14 g     F .text	000001f8 OSQCreate
020287fc g     F .text	0000005c irq_Mask
0201d52c g     F .text	000001a8 OSTaskNameGet
02054370 g     O .bss	00000004 nextppp
020542fc g     O .bss	00000004 irq_level
02023fa0 g     F .text	00000158 fixup_subnet_mask
0201b7dc g     F .text	0000020c OSQPostOpt
020169b0 g     F .text	00000220 OSTimeTick
02041304 g     F .text	00000130 ip_copypkt
0205414c g     O .rwdata	00000002 OSTaskMax
0204c128 g       *ABS*	00000000 __DTOR_LIST__
0201bca8 g     F .text	00000100 OSSemCreate
020542dc g     O .bss	00000004 igmp_all_hosts_group
02054170 g     O .rwdata	00000002 OSTmrWheelSize
02635e8c g     O .bss	00002000 LEDTaskStk
0202f290 g     F .text	00000038 sbselqueue
020542e4 g     O .bss	00000004 netmain_wakes
0203e93c g     F .text	0000026c arprcv
020521a8 g     O .rwdata	00000018 wstask
02027484 g     F .text	00000070 TK_OSTaskResume
020258b8 g     F .text	00000420 igmp_print_stats
0201417c g     F .text	0000005c __nedf2
02000960 g     F .text	00000084 http_cleanup_lcd_text
02029284 g     F .text	00000090 pffindtype
02021948 g     F .text	00000078 alt_ro_zipfs_fstat
02054146 g     O .rwdata	00000002 OSTaskDelEn
020541c0 g     O .rwdata	00000004 tcp_sendspace
02049fa8 g     F .text	00000110 vftell
0263d778 g     O .bss	00000012 eth_prt_buf
0201c508 g     F .text	00000118 OSSemQuery
0201ad0c g     F .text	000002d0 OSQDel
0201b390 g     F .text	00000174 OSQPendAbort
0201e670 g     F .text	00000034 alt_irq_init
02039264 g     F .text	00000040 alt_tse_mac_get_common_speed
0263daf0 g     O .bss	00000018 app_semaphore
02015728 g     F .text	00000060 alt_release_fd
02028ccc g     F .text	00000078 post_app_sem
02024c30 g     F .text	000000f0 igmp_init
02006fec g     F .text	0000006c sprintf
0204e078 g     O .rodata	00000100 __clz_tab
02047784 g     F .text	00000078 md_fwrite
0205423c g     O .bss	00000004 _PathLocale
02054310 g     O .bss	00000004 tcp_sleep_count
02029cd8 g     F .text	00000078 insque
020111e8 g     F .text	00000120 strtof
0204bcdc g     F .text	00000014 atexit
020543dc g     O .bss	00000004 vfsfiles
0200c0dc g     F .text	0000006c _write_r
0204bda0 g     F .text	00000050 _vsprintf_r
020455e4 g     F .text	000002a0 udp_send
02016738 g     F .text	00000088 OSSchedLock
02025024 g     F .text	000002a8 igmp_send
0200e344 g     F .text	0000001c setlocale
02018180 g     F .text	00000128 OSFlagCreate
02028858 g     F .text	00000040 irq_Unmask
0202b6bc g     F .text	000000d0 t_listen
0200fd6c g     F .text	00000008 nanf
020540d8 g     O .rwdata	00000004 _impure_ptr
02054248 g     O .bss	00000004 alt_argc
020356a4 g     F .text	000006ec tcp_usrreq
0203628c g     F .text	00000240 udp_usrreq
020291ec g     F .text	00000050 ncpalloc
0200e3d8 g     F .text	00000064 _mbrtowc_r
0203701c g     F .text	0000005c _do_dtors
02054116 g     O .rwdata	00000002 OSEventMultiEn
020541f0 g     O .rwdata	00000004 pingdelay
02005384 g     F .text	00000474 _fseek_r
0203defc g     F .text	00000070 arp_send_pending
0263d1b0 g     O .bss	000000e0 tse_mac_if
02045b6c g     F .text	000002cc igmpv1_input
02006ce4 g     F .text	000001ec __srefill_r
02028f40 g     F .text	00000074 pre_task_setup
02054330 g     O .bss	00000004 rcvdq_sem_ptr
02025f08 g     F .text	00000118 bsd_getsockname
02042bdc g     F .text	00000130 ip_reasm_mark_compact_rfq
02003898 g     F .text	0000012c FindLastFlashSectorOffset
020182a8 g     F .text	00000270 OSFlagDel
020542a0 g     O .bss	00000004 OSEventFreeList
02000020 g       .exceptions	00000000 alt_irq_entry
02019d54 g     F .text	00000174 OSMboxPendAbort
02054380 g     O .bss	00000004 arpcache
0204b514 g     F .text	00000314 icmp_destun
020440e4 g     F .text	00000064 lookup_mcast
0204a31c g     F .text	00000048 vfslookup
02043a90 g     F .text	00000400 ip_demux
0200f0d8 g     F .text	00000060 __ulp
0200fc44 g     F .text	00000038 __isinfd
02054314 g     O .bss	00000004 tcp_wakeup_count
0201879c g     F .text	00000600 OSFlagPend
02054162 g     O .rwdata	00000002 OSTmrEn
02004b5c g     F .text	00000018 __fp_unlock_all
02625d88 g     O .bss	0000c000 http_tx_buffer
02028c10 g     F .text	000000bc wait_app_sem
0200dc20 g     F .text	00000060 fputc
0205418c g     O .rwdata	00000004 ipmcfail_str
02054328 g     O .bss	00000004 memtrapsize
020296b8 g     F .text	000002f0 m_copy
020541c8 g     O .rwdata	00000008 alt_fs_list
0263db6c g     O .bss	00000014 mfreeq
02017764 g     F .text	0000007c OS_StrCopy
0202cc40 g     F .text	0000005c sobind
02002570 g     F .text	00000334 http_handle_post
02047568 g     F .text	00000078 init_memdev
02029d50 g     F .text	00000108 nptcp_init
0205412c g     O .rwdata	00000002 OSMemNameSize
0263d9c0 g     O .bss	000000f0 global_TCPwakeup_set
02037f84 g     F .text	0000001c OSInitHookEnd
0202ed58 g     F .text	000000c0 soisdisconnected
0203de78 g     F .text	00000084 arp_free_pending
02054158 g     O .rwdata	00000002 OSTCBPrioTblMax
0200e360 g     F .text	0000000c localeconv
0202ce8c g     F .text	00000348 soclose
02021bdc g     F .text	000000f4 epcs_read_buffer
0263d8b0 g     O .bss	00000014 bigfreeq
02054154 g     O .rwdata	00000002 OSTaskStatStkChkEn
020541ec g     O .rwdata	00000004 prompt
0201e948 g     F .text	00000054 alt_epcs_flash_init
0203c43c g     F .text	000001a8 alt_tse_phy_set_adv_10
020541b8 g     O .rwdata	00000004 tcp_keepidle
0202ab84 g     F .text	000001c8 rawip_soinput
02019744 g     F .text	000000fc OSMboxCreate
0203739c g     F .text	00000050 alt_ic_isr_register
02049dfc g     F .text	00000060 vfwrite
02054128 g     O .rwdata	00000002 OSMemEn
0202f038 g     F .text	000000a8 soqinsque
020543b4 g     O .bss	00000004 so_evtmap_delete
02005ba8 g     F .text	00000040 fwrite
020120e8 g     F .text	00000090 __hexdig_init
020070dc g     F .text	00000078 _sscanf_r
02054132 g     O .rwdata	00000002 OSMutexEn
020540a8 g     O .rwdata	00000008 mapping
020543a0 g     O .bss	00000004 h_ireq
02054214 g       *ABS*	00000000 _edata
020407e4 g     F .text	000005b0 ip_fragment
020237b0 g     F .text	00000128 iniche_devices_init
0263db80 g     O .bss	00000028 tcp_saveti
02026fc0 g     F .text	000000dc con_page
0263e1bc g       *ABS*	00000000 _end
0202e668 g     F .text	000004a8 sogetopt
02015028 g     F .text	00000068 alt_flash_open_dev
020542a4 g     O .bss	00000001 OSIntNesting
0203b2fc g     F .text	00000240 alt_tse_mac_associate_phy
02053bc0 g     O .rwdata	00000030 nettasks
0200253c g     F .text	00000034 http_send_redirect
020280f4 g     F .text	00000020 pk_get_max_intrsafe_buf_len
020410e4 g     F .text	00000220 iproute
0202a618 g     F .text	000000f4 np_stripoptions
020543b8 g     O .bss	00000001 so_evtmap
0200bf14 g     F .text	00000070 vfscanf
02054224 g     O .bss	00000004 board_control_mbox
0201f960 g     F .text	000000f4 altera_avalon_jtag_uart_ioctl
0200dc80 g     F .text	00000074 _fputs_r
0201e384 g     F .text	000001ec OSTimeDlyResume
020448ac g     F .text	000003ec add_route
02018648 g     F .text	00000154 OSFlagNameSet
02024588 g     F .text	000000b8 c_older
02019ab0 g     F .text	000002a4 OSMboxPend
02054228 g     O .bss	00000001 to_wstask
0202fa0c g     F .text	00000088 sbflush
02047608 g     F .text	00000020 md_fclose
02027808 g     F .text	0000002c tk_yield
0201da8c g     F .text	000001d4 OSTaskStkChk
02037488 g     F .text	000000a0 alt_ic_irq_disable
0202d40c g     F .text	0000055c sosend
02021f8c g     F .text	00000058 epcs_enter_4_bytes_mode
0205412e g     O .rwdata	00000002 OSMemSize
02040d94 g     F .text	000000a8 ip_mymach
020206e0 g     F .text	00000088 alt_avalon_sgdma_construct_descriptor
020071a8 g     F .text	00000088 __swrite
020542f8 g     O .bss	00000004 cticks_initialized
020541f4 g     O .rwdata	00000004 deflength
0202c3ec g     F .text	000001ec t_sendto
020540e0 g     O .rwdata	00000004 __malloc_trim_threshold
02006974 g     F .text	00000070 _perror_r
02037ae4 g     F .text	00000020 altera_nios2_qsys_irq_init
020542a8 g     O .bss	00000004 OSTCBCur
0202ca8c g     F .text	000001b4 socreate
0204bd0c g     F .text	00000038 exit
0263de38 g     O .bss	00000100 arp_table
020543f4 g     O .bss	00000004 icmpdu_hook
02054130 g     O .rwdata	00000002 OSMemTblSize
02005a50 g     F .text	000000b8 _fwalk_reent
0203db58 g     F .text	00000024 create_apptasks
020541b4 g     O .rwdata	00000004 tcp_ttl
0200ef30 g     F .text	000001a8 __mdiff
02015090 g     F .text	00000050 alt_flash_close_dev
0202923c g     F .text	00000048 ncpfree
02014740 g     F .text	0000005c __modsi3
020542c0 g     O .bss	00000004 MaxLnh
020384d0 g     F .text	00000050 tse_mac_setGMIImode
02047d74 g     F .text	00000080 inet_ntop
02045b00 g     F .text	0000002c udp_maxalloc
0203ce5c g     F .text	000000e4 marvell_cfg_gmii
020196ac g     F .text	00000098 OSMboxAccept
04000000 g       *ABS*	00000000 __alt_data_end
02000020 g     F .exceptions	00000000 alt_exception
02004b38 g     F .text	00000004 __sfp_lock_release
02016574 g     F .text	00000054 OSInit
02001b74 g     F .text	00000760 http_send_file_header
02000000 g       *ABS*	00000000 __alt_mem_sdram
0203b53c g     F .text	00000128 alt_tse_phy_cfg_pcs
0201de70 g     F .text	0000012c OSTaskQuery
0203d280 g     F .text	00000090 icmp_port_du
02054358 g     O .bss	00000004 tcp_iss
0201bb4c g     F .text	000000ac OS_QInit
0200fca8 g     F .text	000000c4 __sccl
020541a4 g     O .rwdata	00000004 bigbufsiz
020044d4 g     F .text	0000000c atoi
020177e0 g     F .text	00000054 OS_StrLen
02034e5c g     F .text	00000080 tcp_putseq
0201a628 g     F .text	0000011c OSMemNameSet
0204d3dc g     O .rodata	00000101 _ctype_
0202f65c g     F .text	000001d8 sbappendaddr
020543ec g     O .bss	00000004 vfs_total_rw_space
02046c98 g     F .text	00000114 ip_getmoptions
0205414a g     O .rwdata	00000002 OSTaskProfileEn
02045884 g     F .text	000000f0 udpswap
020542ac g     O .bss	00000004 OSTime
02054334 g     O .bss	00000004 nextslow
02034f54 g     F .text	00000284 tcp_slowtimo
02034b6c g     F .text	0000010c tcp_newtcpcb
0203eba8 g     F .text	000001a8 send_via_arp
02004454 g     F .text	00000080 LED_task
02042568 g     F .text	00000058 ip_reasm_find_ire
02014920 g     F .text	000000bc __fpcmp_parts_f
0263b90c g     O .bss	00000800 OSTaskIdleStk
02004b74 g     F .text	00000130 _fopen_r
0204c0e4 g     F .text	00000044 _exit
0204a538 g     F .text	00000058 isvfile_locked
0200fc7c g     F .text	0000002c __isnand
02019fd8 g     F .text	0000015c OSMboxPostOpt
020264bc g     F .text	000001cc bsd_select
02036c4c g     F .text	00000140 alt_alarm_start
02018518 g     F .text	00000130 OSFlagNameGet
02045b2c g     F .text	00000040 udp_free
020281d0 g     F .text	000000b8 getq
0204a68c g     F .text	00000024 prep_vfs
0201e570 g     F .text	00000064 OSTimeGet
020541e8 g     O .rwdata	00000004 name
0202fc4c g     F .text	000000fc sbdropend
02012b44 g     F .text	00000060 __muldi3
02005ce0 g     F .text	000001a8 __smakebuf_r
0203ed50 g     F .text	00000150 cb_arpent_tmo
02007c64 g     F .text	0000008c strlen
02046584 g     F .text	00000148 IPADDR_TO_NETP
02021cd0 g     F .text	00000050 epcs_write_enable
0202634c g     F .text	00000034 bsd_inet_ntoa
02037f08 g     F .text	0000001c OSTaskSwHook
020155d4 g     F .text	00000154 open
02048248 g     F .text	00000218 udp_open
0263c10c g     O .bss	00000b40 OSEventTbl
0202f1e8 g     F .text	00000054 socantsendmore
020543f0 g     O .bss	00000004 vfs_total_dyna_files
0201423c g     F .text	00000064 __gedf2
0263cc4c g     O .bss	00000510 OSTCBTbl
02012178 g     F .text	00000740 __gethex
0205438c g     O .bss	00000004 arpReqsOut
0201c620 g     F .text	00000100 OSSemSet
02054210 g     O .rwdata	00000004 http_root_path
02041ad4 g     F .text	00000564 ip_reasm_compute_overlap
02005884 g     F .text	00000110 _ftell_r
02038350 g     F .text	000000a4 tse_mac_aRxRead
020073e0 g     F .text	000000e8 strchr
0263d78a g     O .bss	00000012 ipreturn
020543a8 g     O .bss	00000004 port_prep
02053c43 g     O .rwdata	0000000d tcp_backoff
0202eb58 g     F .text	0000006c soisconnecting
0200dcf4 g     F .text	0000001c fputs
020541e0 g     O .rwdata	00000004 alt_priority_mask
020460c0 g     F .text	0000023c igmpv2_process_query
0202fdd4 g     F .text	000001ec t_select
0201bda8 g     F .text	00000270 OSSemDel
02036b24 g     F .text	00000128 udp4_sockaddr
020542b0 g     O .bss	00000004 OSFlagFreeList
02048824 g     F .text	000001dc in_pcbconnect
0205434c g     O .bss	00000004 dropline
020543a4 g     O .bss	00000004 ire_cticks
020373ec g     F .text	0000009c alt_ic_irq_enable
02054110 g     O .rwdata	00000002 OSEventNameSize
02019840 g     F .text	00000270 OSMboxDel
0200a828 g     F .text	00000024 __vfprintf_internal
0202738c g     F .text	00000088 tk_netmain
02048a00 g     F .text	00000058 in_pcbdisconnect
020542b4 g     O .bss	00000001 OSStatRdy
0263d15c g     O .bss	00000054 OSTCBPrioTbl
020159d4 g     F .text	000000b8 __env_lock
02054156 g     O .rwdata	00000002 OSTaskSwHookEn
02053f3c g     O .rwdata	00000024 mdio
02039524 g     F .text	000000e0 alt_tse_mac_set_speed
020202dc g     F .text	00000080 alt_avalon_sgdma_construct_mem_to_mem_desc_burst
02025cd8 g     F .text	00000118 bsd_accept
0200308c g     F .text	00000030 die_with_error
020541c4 g     O .rwdata	00000004 tcp_recvspace
02001714 g     F .text	000002cc http_process_request
02013c28 g     F .text	00000060 __subdf3
02036048 g     F .text	00000040 tcpinit
020542e0 g     O .bss	00000004 igmp_all_rtrs_group
0202ab20 g     F .text	00000064 rawip_lookup
0201f208 g     F .text	00000098 alt_epcs_flash_read
0203dc04 g     F .text	000000a0 fcntl
0200e984 g     F .text	000000b0 __lo0bits
0202f834 g     F .text	000001d8 sbcompress
0200a84c g     F .text	00001658 __svfscanf_r
02637e8c g     O .bss	00002000 BCTaskStk
020540f4 g     O .rwdata	00000008 alt_alarm_list
02011d64 g     F .text	0000019c _ungetc_r
02034c78 g     F .text	000000ac tcp_drop
0205411e g     O .rwdata	00000002 OSFlagWidth
02036fc0 g     F .text	0000005c _do_ctors
0203c1f4 g     F .text	00000248 alt_tse_phy_set_adv_100
02035234 g     F .text	00000470 tcp_timers
02024bac g     F .text	00000084 if_netnumber
02046dac g     F .text	00000084 ip_freemoptions
0202eb10 g     F .text	00000048 sohasoutofband
02030a68 g     F .text	00002340 tcp_input
02025df0 g     F .text	00000118 bsd_getpeername
02026380 g     F .text	0000013c bsd_recvfrom
02023768 g     F .text	00000048 close
02054260 g     O .bss	00000004 alt_envsem
020542b8 g     O .bss	00000004 OSIdleCtrRun
02016bd0 g     F .text	00000020 OSVersion
02054168 g     O .rwdata	00000002 OSTmrCfgWheelSize
0201df9c g     F .text	00000070 OS_TaskStkClr
02048dac g     F .text	00000028 set_vfopen_error
02014a08 g     F .text	00000224 __pack_d
02054142 g     O .rwdata	00000002 OSTaskCreateEn
020392ec g     F .text	0000006c alt_tse_get_system_index
02053c20 g     O .rwdata	00000018 rawip_protosw
0202f2c8 g     F .text	00000068 sbwait
0201719c g     F .text	00000068 OS_EventWaitListInit
02020c44 g     F .text	000000a4 alt_avalon_sgdma_init
02054374 g     O .bss	00000004 port_1s_callout
02037fa0 g     F .text	0000001c OSTaskIdleHook
0204bd58 g     F .text	00000014 free
02004b3c g     F .text	00000004 __sinit_lock_acquire
02021d88 g     F .text	0000011c epcs_write_buffer
020542bc g     O .bss	00000001 number_of_tse_mac
0200e704 g     F .text	00000114 __multadd
0200e6dc g     F .text	00000028 _Bfree
0201dc60 g     F .text	00000210 OSTaskSuspend
020540c0 g     O .rwdata	00000008 upload_field
020381e4 g     F .text	0000002c no_printf
0202ee18 g     F .text	00000220 sonewconn
0204a92c g     F .text	00000be8 icmprcv
02029314 g     F .text	000000c4 pffindproto
0202107c g     F .text	00000134 check_directory_header
02017834 g     F .text	0000005c OS_TaskIdle
0205416e g     O .rwdata	00000002 OSTmrTblSize
0201b9e8 g     F .text	00000164 OSQQuery



Disassembly of section .exceptions:

02000020 <alt_exception>:

#else /* ALT_EXCEPTION_STACK disabled */
        /* 
         * Reserve space on normal stack for registers about to be pushed.
         */
        addi  sp, sp, -76
 2000020:	deffed04 	addi	sp,sp,-76
         * documentation for details).
         *
         * Leave a gap in the stack frame at 4(sp) for the muldiv handler to
         * store zero into.
         */
        stw   ra,  0(sp)
 2000024:	dfc00015 	stw	ra,0(sp)
        stw   r1,   8(sp)
 2000028:	d8400215 	stw	at,8(sp)
        stw   r2,  12(sp)
 200002c:	d8800315 	stw	r2,12(sp)
        stw   r3,  16(sp)
 2000030:	d8c00415 	stw	r3,16(sp)
        stw   r4,  20(sp)
 2000034:	d9000515 	stw	r4,20(sp)
        stw   r5,  24(sp)
 2000038:	d9400615 	stw	r5,24(sp)
        stw   r6,  28(sp)
 200003c:	d9800715 	stw	r6,28(sp)
        stw   r7,  32(sp)
 2000040:	d9c00815 	stw	r7,32(sp)
        rdctl r5, estatus   /* Read early to avoid usage stall */
 2000044:	000b307a 	rdctl	r5,estatus
        stw   r8,  36(sp)
 2000048:	da000915 	stw	r8,36(sp)
        stw   r9,  40(sp)
 200004c:	da400a15 	stw	r9,40(sp)
        stw   r10, 44(sp)
 2000050:	da800b15 	stw	r10,44(sp)
        stw   r11, 48(sp)
 2000054:	dac00c15 	stw	r11,48(sp)
        stw   r12, 52(sp)
 2000058:	db000d15 	stw	r12,52(sp)
        stw   r13, 56(sp)
 200005c:	db400e15 	stw	r13,56(sp)
        stw   r14, 60(sp)
 2000060:	db800f15 	stw	r14,60(sp)
        stw   r15, 64(sp)
 2000064:	dbc01015 	stw	r15,64(sp)
        /*
         * ea-4 contains the address of the instruction being executed
         * when the exception occured. For interrupt exceptions, we will
         * will be re-issue the isntruction. Store it in 72(sp)
         */
        stw   r5,  68(sp)  /* estatus */
 2000068:	d9401115 	stw	r5,68(sp)
        addi  r15, ea, -4  /* instruction that caused exception */
 200006c:	ebffff04 	addi	r15,ea,-4
        stw   r15,  72(sp)
 2000070:	dbc01215 	stw	r15,72(sp)
#else
        /*
         * Test to see if the exception was a software exception or caused 
         * by an external interrupt, and vector accordingly.
         */
        rdctl r4, ipending
 2000074:	0009313a 	rdctl	r4,ipending
        andi  r2, r5, 1
 2000078:	2880004c 	andi	r2,r5,1
        beq   r2, zero, .Lnot_irq
 200007c:	10000326 	beq	r2,zero,200008c <alt_exception+0x6c>
        beq   r4, zero, .Lnot_irq
 2000080:	20000226 	beq	r4,zero,200008c <alt_exception+0x6c>
        /*
         * Now that all necessary registers have been preserved, call 
         * alt_irq_handler() to process the interrupts.
         */

        call alt_irq_handler
 2000084:	20000ec0 	call	20000ec <alt_irq_handler>

        .section .exceptions.irqreturn, "xa"

        br    .Lexception_exit
 2000088:	00000306 	br	2000098 <alt_exception_unknown+0x4>
         * upon completion, so we write ea (address of instruction *after*
         * the one where the exception occured) into 72(sp). The actual
         * instruction that caused the exception is written in r2, which these
         * handlers will utilize.
         */
        stw   ea,  72(sp)  /* Don't re-issue */
 200008c:	df401215 	stw	ea,72(sp)
        ldw   r2, -4(ea)   /* Instruction that caused exception */
 2000090:	e8bfff17 	ldw	r2,-4(ea)

02000094 <alt_exception_unknown>:
#ifdef NIOS2_HAS_DEBUG_STUB
       /*
        *  Either tell the user now (if there is a debugger attached) or go into
        *  the debug monitor which will loop until a debugger is attached.
        */
        break
 2000094:	003da03a 	break	0
        /* 
         * Restore the saved registers, so that all general purpose registers 
         * have been restored to their state at the time the interrupt occured.
         */

        ldw   r5,  68(sp)
 2000098:	d9401117 	ldw	r5,68(sp)
        ldw   ea,  72(sp)  /* This becomes the PC once eret is executed */
 200009c:	df401217 	ldw	ea,72(sp)
        ldw   ra,   0(sp)
 20000a0:	dfc00017 	ldw	ra,0(sp)

        wrctl estatus, r5
 20000a4:	2801707a 	wrctl	estatus,r5

        ldw   r1,   8(sp)
 20000a8:	d8400217 	ldw	at,8(sp)
        ldw   r2,  12(sp)
 20000ac:	d8800317 	ldw	r2,12(sp)
        ldw   r3,  16(sp)
 20000b0:	d8c00417 	ldw	r3,16(sp)
        ldw   r4,  20(sp)
 20000b4:	d9000517 	ldw	r4,20(sp)
        ldw   r5,  24(sp)
 20000b8:	d9400617 	ldw	r5,24(sp)
        ldw   r6,  28(sp)
 20000bc:	d9800717 	ldw	r6,28(sp)
        ldw   r7,  32(sp)
 20000c0:	d9c00817 	ldw	r7,32(sp)

#if defined(ALT_EXCEPTION_STACK) && defined(ALT_STACK_CHECK)
        ldw   et, %gprel(alt_exception_old_stack_limit)(gp)
#endif

        ldw   r8,  36(sp)
 20000c4:	da000917 	ldw	r8,36(sp)
        ldw   r9,  40(sp)
 20000c8:	da400a17 	ldw	r9,40(sp)
        ldw   r10, 44(sp)
 20000cc:	da800b17 	ldw	r10,44(sp)
        ldw   r11, 48(sp)
 20000d0:	dac00c17 	ldw	r11,48(sp)
        ldw   r12, 52(sp)
 20000d4:	db000d17 	ldw	r12,52(sp)
        ldw   r13, 56(sp)
 20000d8:	db400e17 	ldw	r13,56(sp)
        ldw   r14, 60(sp)
 20000dc:	db800f17 	ldw	r14,60(sp)
        ldw   r15, 64(sp)
 20000e0:	dbc01017 	ldw	r15,64(sp)
        stw   et, %gprel(alt_stack_limit_value)(gp)
        stw   zero, %gprel(alt_exception_old_stack_limit)(gp)
#endif /* ALT_STACK_CHECK */
        ldw   sp,  76(sp)
#else /* ALT_EXCEPTION_STACK disabled */
        addi  sp, sp, 76
 20000e4:	dec01304 	addi	sp,sp,76

        /*
         * Return to the interrupted instruction.
         */

        eret
 20000e8:	ef80083a 	eret

020000ec <alt_irq_handler>:
 * instruction is present if the macro ALT_CI_INTERRUPT_VECTOR defined.
 */

void alt_irq_handler (void) __attribute__ ((section (".exceptions")));
void alt_irq_handler (void)
{
 20000ec:	defff904 	addi	sp,sp,-28
 20000f0:	dfc00615 	stw	ra,24(sp)
 20000f4:	df000515 	stw	fp,20(sp)
 20000f8:	df000504 	addi	fp,sp,20
  
  /*
   * Notify the operating system that we are at interrupt level.
   */ 
  
  ALT_OS_INT_ENTER();
 20000fc:	20165c80 	call	20165c8 <OSIntEnter>
#ifndef NIOS2_EIC_PRESENT
static ALT_INLINE alt_u32 ALT_ALWAYS_INLINE alt_irq_pending (void)
{
  alt_u32 active;

  NIOS2_READ_IPENDING (active);
 2000100:	0005313a 	rdctl	r2,ipending
 2000104:	e0bffe15 	stw	r2,-8(fp)

  return active;
 2000108:	e0bffe17 	ldw	r2,-8(fp)
   * Consider the case where the high priority interupt is asserted during
   * the interrupt entry sequence for a lower priority interrupt to see why
   * this is the case.
   */

  active = alt_irq_pending ();
 200010c:	e0bffb15 	stw	r2,-20(fp)

  do
  {
    i = 0;
 2000110:	e03ffd15 	stw	zero,-12(fp)
    mask = 1;
 2000114:	00800044 	movi	r2,1
 2000118:	e0bffc15 	stw	r2,-16(fp)
     * called to clear the interrupt condition.
     */

    do
    {
      if (active & mask)
 200011c:	e0fffb17 	ldw	r3,-20(fp)
 2000120:	e0bffc17 	ldw	r2,-16(fp)
 2000124:	1884703a 	and	r2,r3,r2
 2000128:	10001726 	beq	r2,zero,2000188 <alt_irq_handler+0x9c>
      { 
#ifdef ALT_ENHANCED_INTERRUPT_API_PRESENT
        alt_irq[i].handler(alt_irq[i].context); 
 200012c:	00c09934 	movhi	r3,612
 2000130:	18f72d04 	addi	r3,r3,-9036
 2000134:	e0bffd17 	ldw	r2,-12(fp)
 2000138:	100490fa 	slli	r2,r2,3
 200013c:	1885883a 	add	r2,r3,r2
 2000140:	10c00017 	ldw	r3,0(r2)
 2000144:	01009934 	movhi	r4,612
 2000148:	21372d04 	addi	r4,r4,-9036
 200014c:	e0bffd17 	ldw	r2,-12(fp)
 2000150:	100490fa 	slli	r2,r2,3
 2000154:	2085883a 	add	r2,r4,r2
 2000158:	10800104 	addi	r2,r2,4
 200015c:	10800017 	ldw	r2,0(r2)
 2000160:	1009883a 	mov	r4,r2
 2000164:	183ee83a 	callr	r3
#else
        alt_irq[i].handler(alt_irq[i].context, i); 
#endif
        break;
 2000168:	0001883a 	nop
#ifndef NIOS2_EIC_PRESENT
static ALT_INLINE alt_u32 ALT_ALWAYS_INLINE alt_irq_pending (void)
{
  alt_u32 active;

  NIOS2_READ_IPENDING (active);
 200016c:	0005313a 	rdctl	r2,ipending
 2000170:	e0bfff15 	stw	r2,-4(fp)

  return active;
 2000174:	e0bfff17 	ldw	r2,-4(fp)
      mask <<= 1;
      i++;

    } while (1);

    active = alt_irq_pending ();
 2000178:	e0bffb15 	stw	r2,-20(fp)
    
  } while (active);
 200017c:	e0bffb17 	ldw	r2,-20(fp)
 2000180:	103fe31e 	bne	r2,zero,2000110 <alt_irq_handler+0x24>
 2000184:	00000706 	br	20001a4 <alt_irq_handler+0xb8>
#else
        alt_irq[i].handler(alt_irq[i].context, i); 
#endif
        break;
      }
      mask <<= 1;
 2000188:	e0bffc17 	ldw	r2,-16(fp)
 200018c:	1085883a 	add	r2,r2,r2
 2000190:	e0bffc15 	stw	r2,-16(fp)
      i++;
 2000194:	e0bffd17 	ldw	r2,-12(fp)
 2000198:	10800044 	addi	r2,r2,1
 200019c:	e0bffd15 	stw	r2,-12(fp)

    } while (1);
 20001a0:	003fde06 	br	200011c <alt_irq_handler+0x30>

  /*
   * Notify the operating system that interrupt processing is complete.
   */ 

  ALT_OS_INT_EXIT();
 20001a4:	20166440 	call	2016644 <OSIntExit>
}
 20001a8:	e037883a 	mov	sp,fp
 20001ac:	dfc00117 	ldw	ra,4(sp)
 20001b0:	df000017 	ldw	fp,0(sp)
 20001b4:	dec00204 	addi	sp,sp,8
 20001b8:	f800283a 	ret

Disassembly of section .text:

020001bc <_start>:

    /* Assume the data cache size is always a power of two. */
#if NIOS2_DCACHE_SIZE > 0x8000
    movhi r2, %hi(NIOS2_DCACHE_SIZE)
#else
    movui r2, NIOS2_DCACHE_SIZE
 20001bc:	00820014 	movui	r2,2048
#endif

0:
    initd 0(r2)
 20001c0:	10000033 	initd	0(r2)
#ifdef NIOS2_ECC_PRESENT
    addi r2, r2, -4
#else
    addi r2, r2, -NIOS2_DCACHE_LINE_SIZE
 20001c4:	10bff804 	addi	r2,r2,-32
#endif
    bgt r2, zero, 0b
 20001c8:	00bffd16 	blt	zero,r2,20001c0 <_start+0x4>

    /*
     * Now that the caches are initialized, set up the stack pointer and global pointer.
     * The values provided by the linker are assumed to be correctly aligned.
     */
    movhi sp, %hi(__alt_stack_pointer)
 20001cc:	06c10034 	movhi	sp,1024
    ori sp, sp, %lo(__alt_stack_pointer)
 20001d0:	dec00014 	ori	sp,sp,0
    movhi gp, %hi(_gp)
 20001d4:	06808174 	movhi	gp,517
    ori gp, gp, %lo(_gp)
 20001d8:	d6b02a14 	ori	gp,gp,49320
 */
#ifndef ALT_SIM_OPTIMIZE
    /* Log that the BSS is about to be cleared. */
    ALT_LOG_PUTS(alt_log_msg_bss)

    movhi r2, %hi(__bss_start)
 20001dc:	00808174 	movhi	r2,517
    ori r2, r2, %lo(__bss_start)
 20001e0:	10908514 	ori	r2,r2,16916

    movhi r3, %hi(__bss_end)
 20001e4:	00c098f4 	movhi	r3,611
    ori r3, r3, %lo(__bss_end)
 20001e8:	18f86f14 	ori	r3,r3,57788

    beq r2, r3, 1f
 20001ec:	10c00326 	beq	r2,r3,20001fc <_start+0x40>

0:
    stw zero, (r2)
 20001f0:	10000015 	stw	zero,0(r2)
    addi r2, r2, 4
 20001f4:	10800104 	addi	r2,r2,4
    bltu r2, r3, 0b
 20001f8:	10fffd36 	bltu	r2,r3,20001f0 <_start+0x34>

    /* Log that alt_main is about to be called. */
    ALT_LOG_PUTS(alt_log_msg_alt_main)

    /* Call the C entry point. It should never return. */
    call alt_main
 20001fc:	20153ec0 	call	20153ec <alt_main>

02000200 <alt_after_alt_main>:

    /* Wait in infinite loop in case alt_main does return. */
alt_after_alt_main:
    br alt_after_alt_main
 2000200:	003fff06 	br	2000200 <alt_after_alt_main>

02000204 <alt_uCOSIIErrorHandler>:
#include <errno.h>
#include "includes.h"
#include "alt_error_handler.h"
 
void alt_uCOSIIErrorHandler(INT8U error_code, void *expanded_diagnosis_ptr)
{
 2000204:	defffb04 	addi	sp,sp,-20
 2000208:	dfc00415 	stw	ra,16(sp)
 200020c:	df000315 	stw	fp,12(sp)
 2000210:	df000304 	addi	fp,sp,12
 2000214:	2005883a 	mov	r2,r4
 2000218:	e17fff15 	stw	r5,-4(fp)
 200021c:	e0bffe05 	stb	r2,-8(fp)
   FAULT_LEVEL fault_level;
   
   if(error_code == OS_NO_ERR)
 2000220:	e0bffe03 	ldbu	r2,-8(fp)
 2000224:	10018326 	beq	r2,zero,2000834 <alt_uCOSIIErrorHandler+0x630>
   {
      return;
   }
   
   fault_level = SYSTEM;  
 2000228:	00800084 	movi	r2,2
 200022c:	e0bffd15 	stw	r2,-12(fp)
   OSSchedLock();  /* Disable Task Switching but still service other IRQs */
 2000230:	20167380 	call	2016738 <OSSchedLock>
      
   switch (error_code)
 2000234:	e0bffe03 	ldbu	r2,-8(fp)
 2000238:	10c00a20 	cmpeqi	r3,r2,40
 200023c:	1800261e 	bne	r3,zero,20002d8 <alt_uCOSIIErrorHandler+0xd4>
 2000240:	10c00a48 	cmpgei	r3,r2,41
 2000244:	1800121e 	bne	r3,zero,2000290 <alt_uCOSIIErrorHandler+0x8c>
 2000248:	10c00120 	cmpeqi	r3,r2,4
 200024c:	18006e1e 	bne	r3,zero,2000408 <alt_uCOSIIErrorHandler+0x204>
 2000250:	10c00148 	cmpgei	r3,r2,5
 2000254:	1800071e 	bne	r3,zero,2000274 <alt_uCOSIIErrorHandler+0x70>
 2000258:	10c000a0 	cmpeqi	r3,r2,2
 200025c:	18008e1e 	bne	r3,zero,2000498 <alt_uCOSIIErrorHandler+0x294>
 2000260:	10c000c8 	cmpgei	r3,r2,3
 2000264:	1800731e 	bne	r3,zero,2000434 <alt_uCOSIIErrorHandler+0x230>
 2000268:	10800060 	cmpeqi	r2,r2,1
 200026c:	1000591e 	bne	r2,zero,20003d4 <alt_uCOSIIErrorHandler+0x1d0>
 2000270:	0000de06 	br	20005ec <alt_uCOSIIErrorHandler+0x3e8>
 2000274:	10c00520 	cmpeqi	r3,r2,20
 2000278:	18004a1e 	bne	r3,zero,20003a4 <alt_uCOSIIErrorHandler+0x1a0>
 200027c:	10c007a0 	cmpeqi	r3,r2,30
 2000280:	1800b21e 	bne	r3,zero,200054c <alt_uCOSIIErrorHandler+0x348>
 2000284:	108002a0 	cmpeqi	r2,r2,10
 2000288:	1000771e 	bne	r2,zero,2000468 <alt_uCOSIIErrorHandler+0x264>
 200028c:	0000d706 	br	20005ec <alt_uCOSIIErrorHandler+0x3e8>
 2000290:	10c01020 	cmpeqi	r3,r2,64
 2000294:	1800a21e 	bne	r3,zero,2000520 <alt_uCOSIIErrorHandler+0x31c>
 2000298:	10c01048 	cmpgei	r3,r2,65
 200029c:	1800071e 	bne	r3,zero,20002bc <alt_uCOSIIErrorHandler+0xb8>
 20002a0:	10c00f60 	cmpeqi	r3,r2,61
 20002a4:	1800921e 	bne	r3,zero,20004f0 <alt_uCOSIIErrorHandler+0x2ec>
 20002a8:	10c00fa0 	cmpeqi	r3,r2,62
 20002ac:	1800851e 	bne	r3,zero,20004c4 <alt_uCOSIIErrorHandler+0x2c0>
 20002b0:	10800aa0 	cmpeqi	r2,r2,42
 20002b4:	1000131e 	bne	r2,zero,2000304 <alt_uCOSIIErrorHandler+0x100>
 20002b8:	0000cc06 	br	20005ec <alt_uCOSIIErrorHandler+0x3e8>
 20002bc:	10c01920 	cmpeqi	r3,r2,100
 20002c0:	1800ae1e 	bne	r3,zero,200057c <alt_uCOSIIErrorHandler+0x378>
 20002c4:	10c03fe0 	cmpeqi	r3,r2,255
 20002c8:	1800b91e 	bne	r3,zero,20005b0 <alt_uCOSIIErrorHandler+0x3ac>
 20002cc:	108010a0 	cmpeqi	r2,r2,66
 20002d0:	1000201e 	bne	r2,zero,2000354 <alt_uCOSIIErrorHandler+0x150>
 20002d4:	0000c506 	br	20005ec <alt_uCOSIIErrorHandler+0x3e8>
   {  
      case OS_PRIO_EXIST:
         fprintf(stderr, "Attempted to assign task priority aready in use.\n");
 20002d8:	00808174 	movhi	r2,517
 20002dc:	10903604 	addi	r2,r2,16600
 20002e0:	10800017 	ldw	r2,0(r2)
 20002e4:	10800317 	ldw	r2,12(r2)
 20002e8:	01008174 	movhi	r4,517
 20002ec:	21304a04 	addi	r4,r4,-16088
 20002f0:	01400044 	movi	r5,1
 20002f4:	01800c44 	movi	r6,49
 20002f8:	100f883a 	mov	r7,r2
 20002fc:	2005ba80 	call	2005ba8 <fwrite>
         break;
 2000300:	0000d506 	br	2000658 <alt_uCOSIIErrorHandler+0x454>
      case OS_PRIO_INVALID:
         fprintf(stderr, "Specified task priority higher than allowed max.\n");
 2000304:	00808174 	movhi	r2,517
 2000308:	10903604 	addi	r2,r2,16600
 200030c:	10800017 	ldw	r2,0(r2)
 2000310:	10800317 	ldw	r2,12(r2)
 2000314:	01008174 	movhi	r4,517
 2000318:	21305704 	addi	r4,r4,-16036
 200031c:	01400044 	movi	r5,1
 2000320:	01800c44 	movi	r6,49
 2000324:	100f883a 	mov	r7,r2
 2000328:	2005ba80 	call	2005ba8 <fwrite>
         fprintf(stderr, "Task can't be assigned a priority higher than %d\n",
 200032c:	00808174 	movhi	r2,517
 2000330:	10903604 	addi	r2,r2,16600
 2000334:	10800017 	ldw	r2,0(r2)
 2000338:	10800317 	ldw	r2,12(r2)
 200033c:	1009883a 	mov	r4,r2
 2000340:	01408174 	movhi	r5,517
 2000344:	29706404 	addi	r5,r5,-15984
 2000348:	01800504 	movi	r6,20
 200034c:	2004ce80 	call	2004ce8 <fprintf>
            OS_LOWEST_PRIO);
         break;
 2000350:	0000c106 	br	2000658 <alt_uCOSIIErrorHandler+0x454>
      case OS_NO_MORE_TCB:
         fprintf(stderr, "Task Control Blocks have been exhausted\n");
 2000354:	00808174 	movhi	r2,517
 2000358:	10903604 	addi	r2,r2,16600
 200035c:	10800017 	ldw	r2,0(r2)
 2000360:	10800317 	ldw	r2,12(r2)
 2000364:	01008174 	movhi	r4,517
 2000368:	21307104 	addi	r4,r4,-15932
 200036c:	01400044 	movi	r5,1
 2000370:	01800a04 	movi	r6,40
 2000374:	100f883a 	mov	r7,r2
 2000378:	2005ba80 	call	2005ba8 <fwrite>
         fprintf(stderr, "Current max number of tasks is %d\n",OS_MAX_TASKS);
 200037c:	00808174 	movhi	r2,517
 2000380:	10903604 	addi	r2,r2,16600
 2000384:	10800017 	ldw	r2,0(r2)
 2000388:	10800317 	ldw	r2,12(r2)
 200038c:	1009883a 	mov	r4,r2
 2000390:	01408174 	movhi	r5,517
 2000394:	29707c04 	addi	r5,r5,-15888
 2000398:	01800284 	movi	r6,10
 200039c:	2004ce80 	call	2004ce8 <fprintf>
         break;
 20003a0:	0000ad06 	br	2000658 <alt_uCOSIIErrorHandler+0x454>
      case OS_MBOX_FULL:
         fault_level = NONE;
 20003a4:	e03ffd15 	stw	zero,-12(fp)
         fprintf(stderr, "Attempted Post to Mailbox already holding message\n");
 20003a8:	00808174 	movhi	r2,517
 20003ac:	10903604 	addi	r2,r2,16600
 20003b0:	10800017 	ldw	r2,0(r2)
 20003b4:	10800317 	ldw	r2,12(r2)
 20003b8:	01008174 	movhi	r4,517
 20003bc:	21308504 	addi	r4,r4,-15852
 20003c0:	01400044 	movi	r5,1
 20003c4:	01800c84 	movi	r6,50
 20003c8:	100f883a 	mov	r7,r2
 20003cc:	2005ba80 	call	2005ba8 <fwrite>
         break;
 20003d0:	0000a106 	br	2000658 <alt_uCOSIIErrorHandler+0x454>
      case OS_ERR_EVENT_TYPE:
         fault_level = TASK;
 20003d4:	00800044 	movi	r2,1
 20003d8:	e0bffd15 	stw	r2,-12(fp)
         fprintf(stderr, 
 20003dc:	00808174 	movhi	r2,517
 20003e0:	10903604 	addi	r2,r2,16600
 20003e4:	10800017 	ldw	r2,0(r2)
 20003e8:	10800317 	ldw	r2,12(r2)
 20003ec:	01008174 	movhi	r4,517
 20003f0:	21309204 	addi	r4,r4,-15800
 20003f4:	01400044 	movi	r5,1
 20003f8:	01801244 	movi	r6,73
 20003fc:	100f883a 	mov	r7,r2
 2000400:	2005ba80 	call	2005ba8 <fwrite>
"Attempted to access a resource with no match for the required data type.\n");
         break;
 2000404:	00009406 	br	2000658 <alt_uCOSIIErrorHandler+0x454>
      case OS_ERR_PEVENT_NULL:
         fprintf(stderr, "Attempting to access a resource pointing to NULL\n");
 2000408:	00808174 	movhi	r2,517
 200040c:	10903604 	addi	r2,r2,16600
 2000410:	10800017 	ldw	r2,0(r2)
 2000414:	10800317 	ldw	r2,12(r2)
 2000418:	01008174 	movhi	r4,517
 200041c:	2130a504 	addi	r4,r4,-15724
 2000420:	01400044 	movi	r5,1
 2000424:	01800c44 	movi	r6,49
 2000428:	100f883a 	mov	r7,r2
 200042c:	2005ba80 	call	2005ba8 <fwrite>
         break;
 2000430:	00008906 	br	2000658 <alt_uCOSIIErrorHandler+0x454>
      case OS_ERR_POST_NULL_PTR:
         fault_level = TASK;
 2000434:	00800044 	movi	r2,1
 2000438:	e0bffd15 	stw	r2,-12(fp)
         fprintf(stderr, "Attempted to Post a NULL to a resource. \n");
 200043c:	00808174 	movhi	r2,517
 2000440:	10903604 	addi	r2,r2,16600
 2000444:	10800017 	ldw	r2,0(r2)
 2000448:	10800317 	ldw	r2,12(r2)
 200044c:	01008174 	movhi	r4,517
 2000450:	2130b204 	addi	r4,r4,-15672
 2000454:	01400044 	movi	r5,1
 2000458:	01800a44 	movi	r6,41
 200045c:	100f883a 	mov	r7,r2
 2000460:	2005ba80 	call	2005ba8 <fwrite>
         break;
 2000464:	00007c06 	br	2000658 <alt_uCOSIIErrorHandler+0x454>
      case OS_TIMEOUT:
         fault_level = NONE;
 2000468:	e03ffd15 	stw	zero,-12(fp)
         fprintf(stderr, "Resource not received in specified time\n");
 200046c:	00808174 	movhi	r2,517
 2000470:	10903604 	addi	r2,r2,16600
 2000474:	10800017 	ldw	r2,0(r2)
 2000478:	10800317 	ldw	r2,12(r2)
 200047c:	01008174 	movhi	r4,517
 2000480:	2130bd04 	addi	r4,r4,-15628
 2000484:	01400044 	movi	r5,1
 2000488:	01800a04 	movi	r6,40
 200048c:	100f883a 	mov	r7,r2
 2000490:	2005ba80 	call	2005ba8 <fwrite>
         break;
 2000494:	00007006 	br	2000658 <alt_uCOSIIErrorHandler+0x454>
      case OS_ERR_PEND_ISR:
         fprintf(stderr, "Attempting to pend for a resource in an ISR\n");
 2000498:	00808174 	movhi	r2,517
 200049c:	10903604 	addi	r2,r2,16600
 20004a0:	10800017 	ldw	r2,0(r2)
 20004a4:	10800317 	ldw	r2,12(r2)
 20004a8:	01008174 	movhi	r4,517
 20004ac:	2130c804 	addi	r4,r4,-15584
 20004b0:	01400044 	movi	r5,1
 20004b4:	01800b04 	movi	r6,44
 20004b8:	100f883a 	mov	r7,r2
 20004bc:	2005ba80 	call	2005ba8 <fwrite>
         break;
 20004c0:	00006506 	br	2000658 <alt_uCOSIIErrorHandler+0x454>
      case OS_TASK_DEL_IDLE:
         fprintf(stderr, "Attempted to delete the IDLE task\n");
 20004c4:	00808174 	movhi	r2,517
 20004c8:	10903604 	addi	r2,r2,16600
 20004cc:	10800017 	ldw	r2,0(r2)
 20004d0:	10800317 	ldw	r2,12(r2)
 20004d4:	01008174 	movhi	r4,517
 20004d8:	2130d404 	addi	r4,r4,-15536
 20004dc:	01400044 	movi	r5,1
 20004e0:	01800884 	movi	r6,34
 20004e4:	100f883a 	mov	r7,r2
 20004e8:	2005ba80 	call	2005ba8 <fwrite>
         break;
 20004ec:	00005a06 	br	2000658 <alt_uCOSIIErrorHandler+0x454>
      case OS_TASK_DEL_ERR:
         fault_level = NONE;
 20004f0:	e03ffd15 	stw	zero,-12(fp)
         fprintf(stderr, "Attempted to delete a task that does not exist\n");
 20004f4:	00808174 	movhi	r2,517
 20004f8:	10903604 	addi	r2,r2,16600
 20004fc:	10800017 	ldw	r2,0(r2)
 2000500:	10800317 	ldw	r2,12(r2)
 2000504:	01008174 	movhi	r4,517
 2000508:	2130dd04 	addi	r4,r4,-15500
 200050c:	01400044 	movi	r5,1
 2000510:	01800bc4 	movi	r6,47
 2000514:	100f883a 	mov	r7,r2
 2000518:	2005ba80 	call	2005ba8 <fwrite>
         break;
 200051c:	00004e06 	br	2000658 <alt_uCOSIIErrorHandler+0x454>
      case OS_TASK_DEL_ISR:
         fprintf(stderr, "Attempted to delete a task from an ISR\n");
 2000520:	00808174 	movhi	r2,517
 2000524:	10903604 	addi	r2,r2,16600
 2000528:	10800017 	ldw	r2,0(r2)
 200052c:	10800317 	ldw	r2,12(r2)
 2000530:	01008174 	movhi	r4,517
 2000534:	2130e904 	addi	r4,r4,-15452
 2000538:	01400044 	movi	r5,1
 200053c:	018009c4 	movi	r6,39
 2000540:	100f883a 	mov	r7,r2
 2000544:	2005ba80 	call	2005ba8 <fwrite>
         break;
 2000548:	00004306 	br	2000658 <alt_uCOSIIErrorHandler+0x454>
      case OS_Q_FULL:
         fault_level = NONE;
 200054c:	e03ffd15 	stw	zero,-12(fp)
         fprintf(stderr, "Attempted to post to a full message queue\n");
 2000550:	00808174 	movhi	r2,517
 2000554:	10903604 	addi	r2,r2,16600
 2000558:	10800017 	ldw	r2,0(r2)
 200055c:	10800317 	ldw	r2,12(r2)
 2000560:	01008174 	movhi	r4,517
 2000564:	2130f304 	addi	r4,r4,-15412
 2000568:	01400044 	movi	r5,1
 200056c:	01800a84 	movi	r6,42
 2000570:	100f883a 	mov	r7,r2
 2000574:	2005ba80 	call	2005ba8 <fwrite>
         break;
 2000578:	00003706 	br	2000658 <alt_uCOSIIErrorHandler+0x454>
      case OS_ERR_NOT_MUTEX_OWNER:
         fault_level = TASK;
 200057c:	00800044 	movi	r2,1
 2000580:	e0bffd15 	stw	r2,-12(fp)
         fprintf(stderr, "Attempted to post a mutex not owned by the task\n");
 2000584:	00808174 	movhi	r2,517
 2000588:	10903604 	addi	r2,r2,16600
 200058c:	10800017 	ldw	r2,0(r2)
 2000590:	10800317 	ldw	r2,12(r2)
 2000594:	01008174 	movhi	r4,517
 2000598:	2130fe04 	addi	r4,r4,-15368
 200059c:	01400044 	movi	r5,1
 20005a0:	01800c04 	movi	r6,48
 20005a4:	100f883a 	mov	r7,r2
 20005a8:	2005ba80 	call	2005ba8 <fwrite>
         break;
 20005ac:	00002a06 	br	2000658 <alt_uCOSIIErrorHandler+0x454>
      case EXPANDED_DIAGNOSIS_CODE:      
         fault_level = SYSTEM;
 20005b0:	00800084 	movi	r2,2
 20005b4:	e0bffd15 	stw	r2,-12(fp)
         printf(
 20005b8:	01008174 	movhi	r4,517
 20005bc:	21310b04 	addi	r4,r4,-15316
 20005c0:	2006a240 	call	2006a24 <printf>
"\n[MicroC/OS-II]: See STDERR for expanded diagnosis translation.");    
         fprintf(stderr, "\n[MicroC/OS-II]: Expanded Diagnosis: %s.", 
 20005c4:	00808174 	movhi	r2,517
 20005c8:	10903604 	addi	r2,r2,16600
 20005cc:	10800017 	ldw	r2,0(r2)
 20005d0:	10800317 	ldw	r2,12(r2)
 20005d4:	1009883a 	mov	r4,r2
 20005d8:	01408174 	movhi	r5,517
 20005dc:	29711b04 	addi	r5,r5,-15252
 20005e0:	e1bfff17 	ldw	r6,-4(fp)
 20005e4:	2004ce80 	call	2004ce8 <fprintf>
                 (char *)expanded_diagnosis_ptr);
         break;           
 20005e8:	00001b06 	br	2000658 <alt_uCOSIIErrorHandler+0x454>
      default:
         printf("\n[MicroC/OS-II]: (Not a MicroC/OS-II error) See STDERR.\n");    
 20005ec:	01008174 	movhi	r4,517
 20005f0:	21312604 	addi	r4,r4,-15208
 20005f4:	2006cb40 	call	2006cb4 <puts>
         fprintf(stderr, "\n[MicroC/OS-II]:");
 20005f8:	00808174 	movhi	r2,517
 20005fc:	10903604 	addi	r2,r2,16600
 2000600:	10800017 	ldw	r2,0(r2)
 2000604:	10800317 	ldw	r2,12(r2)
 2000608:	01008174 	movhi	r4,517
 200060c:	21313404 	addi	r4,r4,-15152
 2000610:	01400044 	movi	r5,1
 2000614:	01800404 	movi	r6,16
 2000618:	100f883a 	mov	r7,r2
 200061c:	2005ba80 	call	2005ba8 <fwrite>
         fprintf(stderr, "\nError_code %d.\n", error_code);
 2000620:	00808174 	movhi	r2,517
 2000624:	10903604 	addi	r2,r2,16600
 2000628:	10800017 	ldw	r2,0(r2)
 200062c:	10c00317 	ldw	r3,12(r2)
 2000630:	e0bffe03 	ldbu	r2,-8(fp)
 2000634:	1809883a 	mov	r4,r3
 2000638:	01408174 	movhi	r5,517
 200063c:	29713904 	addi	r5,r5,-15132
 2000640:	100d883a 	mov	r6,r2
 2000644:	2004ce80 	call	2004ce8 <fprintf>
         perror("\n[MicroC/OS-II]: (Not a MicroC/OS-II error), ERRNO: ");
 2000648:	01008174 	movhi	r4,517
 200064c:	21313e04 	addi	r4,r4,-15112
 2000650:	20069e40 	call	20069e4 <perror>
         break;
 2000654:	0001883a 	nop

   }

   /* Process the error based on the fault level, 
    * reenable scheduler if appropriate. */  
   switch (fault_level) {
 2000658:	e0bffd17 	ldw	r2,-12(fp)
 200065c:	10c00060 	cmpeqi	r3,r2,1
 2000660:	1800041e 	bne	r3,zero,2000674 <alt_uCOSIIErrorHandler+0x470>
 2000664:	0080442e 	bgeu	zero,r2,2000778 <alt_uCOSIIErrorHandler+0x574>
 2000668:	108000a0 	cmpeqi	r2,r2,2
 200066c:	1000201e 	bne	r2,zero,20006f0 <alt_uCOSIIErrorHandler+0x4ec>
 2000670:	00006206 	br	20007fc <alt_uCOSIIErrorHandler+0x5f8>
      case TASK:
         /* Error can be isolated by killing the task */
         printf("\n[MicroC/OS-II]: See STDERR (FAULT_LEVEL is TASK).");
 2000674:	01008174 	movhi	r4,517
 2000678:	21314c04 	addi	r4,r4,-15056
 200067c:	2006a240 	call	2006a24 <printf>
         fprintf(stderr, "\n[MicroC/OS-II]: FAULT_LEVEL is TASK");
 2000680:	00808174 	movhi	r2,517
 2000684:	10903604 	addi	r2,r2,16600
 2000688:	10800017 	ldw	r2,0(r2)
 200068c:	10800317 	ldw	r2,12(r2)
 2000690:	01008174 	movhi	r4,517
 2000694:	21315904 	addi	r4,r4,-15004
 2000698:	01400044 	movi	r5,1
 200069c:	01800904 	movi	r6,36
 20006a0:	100f883a 	mov	r7,r2
 20006a4:	2005ba80 	call	2005ba8 <fwrite>
         fprintf(stderr, "\n[MicroC/OS-II]: Task is being deleted.\n");
 20006a8:	00808174 	movhi	r2,517
 20006ac:	10903604 	addi	r2,r2,16600
 20006b0:	10800017 	ldw	r2,0(r2)
 20006b4:	10800317 	ldw	r2,12(r2)
 20006b8:	01008174 	movhi	r4,517
 20006bc:	21316304 	addi	r4,r4,-14964
 20006c0:	01400044 	movi	r5,1
 20006c4:	01800a04 	movi	r6,40
 20006c8:	100f883a 	mov	r7,r2
 20006cc:	2005ba80 	call	2005ba8 <fwrite>
         OSSchedUnlock(); /* Reenable Task Switching */
 20006d0:	20167c00 	call	20167c0 <OSSchedUnlock>
         OSTaskDel(OS_PRIO_SELF);
 20006d4:	01003fc4 	movi	r4,255
 20006d8:	201cff80 	call	201cff8 <OSTaskDel>
         /* Reinvoke uCOSII error handler in case task deletion fails, in 
          * which case fault_level for this secondary error will be SYSTEM. */
         alt_uCOSIIErrorHandler(error_code, 0);         
 20006dc:	e0bffe03 	ldbu	r2,-8(fp)
 20006e0:	1009883a 	mov	r4,r2
 20006e4:	000b883a 	mov	r5,zero
 20006e8:	20002040 	call	2000204 <alt_uCOSIIErrorHandler>
         break;
 20006ec:	00005006 	br	2000830 <alt_uCOSIIErrorHandler+0x62c>
      case SYSTEM:
         /* Total System Failure, Restart Required */
         printf("\n[MicroC/OS-II]: See STDERR (FAULT_LEVEL is SYSTEM).");    
 20006f0:	01008174 	movhi	r4,517
 20006f4:	21316e04 	addi	r4,r4,-14920
 20006f8:	2006a240 	call	2006a24 <printf>
         fprintf(stderr, "\n[MicroC/OS-II]: FAULT_LEVEL is SYSTEM");
 20006fc:	00808174 	movhi	r2,517
 2000700:	10903604 	addi	r2,r2,16600
 2000704:	10800017 	ldw	r2,0(r2)
 2000708:	10800317 	ldw	r2,12(r2)
 200070c:	01008174 	movhi	r4,517
 2000710:	21317c04 	addi	r4,r4,-14864
 2000714:	01400044 	movi	r5,1
 2000718:	01800984 	movi	r6,38
 200071c:	100f883a 	mov	r7,r2
 2000720:	2005ba80 	call	2005ba8 <fwrite>
         fprintf(stderr, "\n[MicroC/OS-II]: FATAL Error, Restart required.");
 2000724:	00808174 	movhi	r2,517
 2000728:	10903604 	addi	r2,r2,16600
 200072c:	10800017 	ldw	r2,0(r2)
 2000730:	10800317 	ldw	r2,12(r2)
 2000734:	01008174 	movhi	r4,517
 2000738:	21318604 	addi	r4,r4,-14824
 200073c:	01400044 	movi	r5,1
 2000740:	01800bc4 	movi	r6,47
 2000744:	100f883a 	mov	r7,r2
 2000748:	2005ba80 	call	2005ba8 <fwrite>
         fprintf(stderr, "\n[MicroC/OS-II]: Locking scheduler - endless loop.\n");
 200074c:	00808174 	movhi	r2,517
 2000750:	10903604 	addi	r2,r2,16600
 2000754:	10800017 	ldw	r2,0(r2)
 2000758:	10800317 	ldw	r2,12(r2)
 200075c:	01008174 	movhi	r4,517
 2000760:	21319204 	addi	r4,r4,-14776
 2000764:	01400044 	movi	r5,1
 2000768:	01800cc4 	movi	r6,51
 200076c:	100f883a 	mov	r7,r2
 2000770:	2005ba80 	call	2005ba8 <fwrite>
         while(1); /* Since scheduler is locked,loop halts all task activity.*/
 2000774:	003fff06 	br	2000774 <alt_uCOSIIErrorHandler+0x570>
         break;
      case NONE:
         fprintf(stderr, "\n[MicroC/OS-II]: FAULT_LEVEL is NONE");
 2000778:	00808174 	movhi	r2,517
 200077c:	10903604 	addi	r2,r2,16600
 2000780:	10800017 	ldw	r2,0(r2)
 2000784:	10800317 	ldw	r2,12(r2)
 2000788:	01008174 	movhi	r4,517
 200078c:	21319f04 	addi	r4,r4,-14724
 2000790:	01400044 	movi	r5,1
 2000794:	01800904 	movi	r6,36
 2000798:	100f883a 	mov	r7,r2
 200079c:	2005ba80 	call	2005ba8 <fwrite>
         fprintf(stderr, "\n[MicroC/OS-II]: Informational error only, control"); 
 20007a0:	00808174 	movhi	r2,517
 20007a4:	10903604 	addi	r2,r2,16600
 20007a8:	10800017 	ldw	r2,0(r2)
 20007ac:	10800317 	ldw	r2,12(r2)
 20007b0:	01008174 	movhi	r4,517
 20007b4:	2131a904 	addi	r4,r4,-14684
 20007b8:	01400044 	movi	r5,1
 20007bc:	01800c84 	movi	r6,50
 20007c0:	100f883a 	mov	r7,r2
 20007c4:	2005ba80 	call	2005ba8 <fwrite>
         fprintf(stderr, 
 20007c8:	00808174 	movhi	r2,517
 20007cc:	10903604 	addi	r2,r2,16600
 20007d0:	10800017 	ldw	r2,0(r2)
 20007d4:	10800317 	ldw	r2,12(r2)
 20007d8:	01008174 	movhi	r4,517
 20007dc:	2131b604 	addi	r4,r4,-14632
 20007e0:	01400044 	movi	r5,1
 20007e4:	01800f84 	movi	r6,62
 20007e8:	100f883a 	mov	r7,r2
 20007ec:	2005ba80 	call	2005ba8 <fwrite>
            "returned to task to complete processing at application level.\n");
         OSSchedUnlock(); /* Reenable Task Switching */
 20007f0:	20167c00 	call	20167c0 <OSSchedUnlock>
         return;   
 20007f4:	0001883a 	nop
 20007f8:	00000f06 	br	2000838 <alt_uCOSIIErrorHandler+0x634>
         break;      
      default:
         printf("\n[MicroC/OS-II]: See STDERR (FAULT_LEVEL is Unknown).\n");
 20007fc:	01008174 	movhi	r4,517
 2000800:	2131c604 	addi	r4,r4,-14568
 2000804:	2006cb40 	call	2006cb4 <puts>
         fprintf(stderr, "\n[MicroC/OS-II]: FAULT_LEVEL is unknown!?!\n");
 2000808:	00808174 	movhi	r2,517
 200080c:	10903604 	addi	r2,r2,16600
 2000810:	10800017 	ldw	r2,0(r2)
 2000814:	10800317 	ldw	r2,12(r2)
 2000818:	01008174 	movhi	r4,517
 200081c:	2131d404 	addi	r4,r4,-14512
 2000820:	01400044 	movi	r5,1
 2000824:	01800ac4 	movi	r6,43
 2000828:	100f883a 	mov	r7,r2
 200082c:	2005ba80 	call	2005ba8 <fwrite>
   }
   while(1); /* Correct Program Flow never gets here. */
 2000830:	003fff06 	br	2000830 <alt_uCOSIIErrorHandler+0x62c>
{
   FAULT_LEVEL fault_level;
   
   if(error_code == OS_NO_ERR)
   {
      return;
 2000834:	0001883a 	nop
      default:
         printf("\n[MicroC/OS-II]: See STDERR (FAULT_LEVEL is Unknown).\n");
         fprintf(stderr, "\n[MicroC/OS-II]: FAULT_LEVEL is unknown!?!\n");
   }
   while(1); /* Correct Program Flow never gets here. */
}
 2000838:	e037883a 	mov	sp,fp
 200083c:	dfc00117 	ldw	ra,4(sp)
 2000840:	df000017 	ldw	fp,0(sp)
 2000844:	dec00204 	addi	sp,sp,8
 2000848:	f800283a 	ret

0200084c <print>:
 * 
 * This routine is called to demonstrate doing something server-side when an
 * HTTP "POST" command is received.
 */
void print()
{
 200084c:	defffe04 	addi	sp,sp,-8
 2000850:	dfc00115 	stw	ra,4(sp)
 2000854:	df000015 	stw	fp,0(sp)
 2000858:	d839883a 	mov	fp,sp
  printf("HTTP POST received.\n");
 200085c:	01008174 	movhi	r4,517
 2000860:	21327204 	addi	r4,r4,-13880
 2000864:	2006cb40 	call	2006cb4 <puts>
}
 2000868:	e037883a 	mov	sp,fp
 200086c:	dfc00117 	ldw	ra,4(sp)
 2000870:	df000017 	ldw	fp,0(sp)
 2000874:	dec00204 	addi	sp,sp,8
 2000878:	f800283a 	ret

0200087c <sweep>:
/* To sweep or not to sweep?  The sweep form will tell this function what to do.
 */


void sweep(http_conn* conn)
{
 200087c:	defffc04 	addi	sp,sp,-16
 2000880:	dfc00315 	stw	ra,12(sp)
 2000884:	df000215 	stw	fp,8(sp)
 2000888:	df000204 	addi	fp,sp,8
 200088c:	e13fff15 	stw	r4,-4(fp)
  char *delimiter_token;

  /* Set board_funcs to be off, by default. */
  
  board_funcs.LED_ON = 0;
 2000890:	008098b4 	movhi	r2,610
 2000894:	10a74b04 	addi	r2,r2,-25300
 2000898:	10000005 	stb	zero,0(r2)
  board_funcs.SSD_ON = 0;
 200089c:	008098b4 	movhi	r2,610
 20008a0:	10a74b04 	addi	r2,r2,-25300
 20008a4:	10000045 	stb	zero,1(r2)

  delimiter_token = strtok(conn->rx_rd_pos, "&");
 20008a8:	e0bfff17 	ldw	r2,-4(fp)
 20008ac:	10800d17 	ldw	r2,52(r2)
 20008b0:	1009883a 	mov	r4,r2
 20008b4:	01408174 	movhi	r5,517
 20008b8:	29727704 	addi	r5,r5,-13860
 20008bc:	20086a80 	call	20086a8 <strtok>
 20008c0:	e0bffe15 	stw	r2,-8(fp)
  
  while(delimiter_token != NULL)
 20008c4:	00001806 	br	2000928 <sweep+0xac>
  {
    if (strstr(delimiter_token, "LED"))
 20008c8:	e13ffe17 	ldw	r4,-8(fp)
 20008cc:	01408174 	movhi	r5,517
 20008d0:	29727804 	addi	r5,r5,-13856
 20008d4:	20083340 	call	2008334 <strstr>
 20008d8:	10000526 	beq	r2,zero,20008f0 <sweep+0x74>
    {
      board_funcs.LED_ON = 1;
 20008dc:	008098b4 	movhi	r2,610
 20008e0:	10a74b04 	addi	r2,r2,-25300
 20008e4:	00c00044 	movi	r3,1
 20008e8:	10c00005 	stb	r3,0(r2)
 20008ec:	00000906 	br	2000914 <sweep+0x98>
    }
    else if (strstr(delimiter_token, "seven"))
 20008f0:	e13ffe17 	ldw	r4,-8(fp)
 20008f4:	01408174 	movhi	r5,517
 20008f8:	29727904 	addi	r5,r5,-13852
 20008fc:	20083340 	call	2008334 <strstr>
 2000900:	10000426 	beq	r2,zero,2000914 <sweep+0x98>
    {
      board_funcs.SSD_ON = 1;
 2000904:	008098b4 	movhi	r2,610
 2000908:	10a74b04 	addi	r2,r2,-25300
 200090c:	00c00044 	movi	r3,1
 2000910:	10c00045 	stb	r3,1(r2)
    }

    delimiter_token = strtok( NULL, "&" );
 2000914:	0009883a 	mov	r4,zero
 2000918:	01408174 	movhi	r5,517
 200091c:	29727704 	addi	r5,r5,-13860
 2000920:	20086a80 	call	20086a8 <strtok>
 2000924:	e0bffe15 	stw	r2,-8(fp)
  board_funcs.LED_ON = 0;
  board_funcs.SSD_ON = 0;

  delimiter_token = strtok(conn->rx_rd_pos, "&");
  
  while(delimiter_token != NULL)
 2000928:	e0bffe17 	ldw	r2,-8(fp)
 200092c:	103fe61e 	bne	r2,zero,20008c8 <sweep+0x4c>
    }

    delimiter_token = strtok( NULL, "&" );
  }
  
  OSMboxPost(board_control_mbox, (void*)&board_funcs);
 2000930:	00808174 	movhi	r2,517
 2000934:	10908904 	addi	r2,r2,16932
 2000938:	10800017 	ldw	r2,0(r2)
 200093c:	1009883a 	mov	r4,r2
 2000940:	014098b4 	movhi	r5,610
 2000944:	29674b04 	addi	r5,r5,-25300
 2000948:	2019ec80 	call	2019ec8 <OSMboxPost>
 
}
 200094c:	e037883a 	mov	sp,fp
 2000950:	dfc00117 	ldw	ra,4(sp)
 2000954:	df000017 	ldw	fp,0(sp)
 2000958:	dec00204 	addi	sp,sp,8
 200095c:	f800283a 	ret

02000960 <http_cleanup_lcd_text>:

void http_cleanup_lcd_text()
{
 2000960:	defffe04 	addi	sp,sp,-8
 2000964:	df000115 	stw	fp,4(sp)
 2000968:	df000104 	addi	fp,sp,4

  /* Step through the board_funcs.LCD_TEXT array looking for chars to replace.
   * For now, just replace '+'s with space characters.
   */

  for (index = 0; index < 20; ++index)
 200096c:	e03fff15 	stw	zero,-4(fp)
 2000970:	00001506 	br	20009c8 <http_cleanup_lcd_text+0x68>
  {
    if (board_funcs.LCD_TEXT[index] == '+')
 2000974:	00c098b4 	movhi	r3,610
 2000978:	18e74b04 	addi	r3,r3,-25300
 200097c:	e0bfff17 	ldw	r2,-4(fp)
 2000980:	1885883a 	add	r2,r3,r2
 2000984:	10800084 	addi	r2,r2,2
 2000988:	10800003 	ldbu	r2,0(r2)
 200098c:	10803fcc 	andi	r2,r2,255
 2000990:	1080201c 	xori	r2,r2,128
 2000994:	10bfe004 	addi	r2,r2,-128
 2000998:	10800ad8 	cmpnei	r2,r2,43
 200099c:	1000071e 	bne	r2,zero,20009bc <http_cleanup_lcd_text+0x5c>
    {
      board_funcs.LCD_TEXT[index] = ' ';
 20009a0:	00c098b4 	movhi	r3,610
 20009a4:	18e74b04 	addi	r3,r3,-25300
 20009a8:	e0bfff17 	ldw	r2,-4(fp)
 20009ac:	1885883a 	add	r2,r3,r2
 20009b0:	10800084 	addi	r2,r2,2
 20009b4:	00c00804 	movi	r3,32
 20009b8:	10c00005 	stb	r3,0(r2)

  /* Step through the board_funcs.LCD_TEXT array looking for chars to replace.
   * For now, just replace '+'s with space characters.
   */

  for (index = 0; index < 20; ++index)
 20009bc:	e0bfff17 	ldw	r2,-4(fp)
 20009c0:	10800044 	addi	r2,r2,1
 20009c4:	e0bfff15 	stw	r2,-4(fp)
 20009c8:	e0bfff17 	ldw	r2,-4(fp)
 20009cc:	10800510 	cmplti	r2,r2,20
 20009d0:	103fe81e 	bne	r2,zero,2000974 <http_cleanup_lcd_text+0x14>
    if (board_funcs.LCD_TEXT[index] == '+')
    {
      board_funcs.LCD_TEXT[index] = ' ';
    }
  }
} 
 20009d4:	e037883a 	mov	sp,fp
 20009d8:	df000017 	ldw	fp,0(sp)
 20009dc:	dec00104 	addi	sp,sp,4
 20009e0:	f800283a 	ret

020009e4 <lcd_output>:

void lcd_output(http_conn* conn)
{
 20009e4:	defffb04 	addi	sp,sp,-20
 20009e8:	dfc00415 	stw	ra,16(sp)
 20009ec:	df000315 	stw	fp,12(sp)
 20009f0:	df000304 	addi	fp,sp,12
 20009f4:	e13fff15 	stw	r4,-4(fp)
  char* delimiter_token;
  char* temp_pos;

  delimiter_token = strtok(conn->rx_rd_pos, "&");
 20009f8:	e0bfff17 	ldw	r2,-4(fp)
 20009fc:	10800d17 	ldw	r2,52(r2)
 2000a00:	1009883a 	mov	r4,r2
 2000a04:	01408174 	movhi	r5,517
 2000a08:	29727704 	addi	r5,r5,-13860
 2000a0c:	20086a80 	call	20086a8 <strtok>
 2000a10:	e0bffd15 	stw	r2,-12(fp)

  while( delimiter_token != NULL )
 2000a14:	00001606 	br	2000a70 <lcd_output+0x8c>
  {
    if (strstr(delimiter_token, "lcd_text"))
 2000a18:	e13ffd17 	ldw	r4,-12(fp)
 2000a1c:	01408174 	movhi	r5,517
 2000a20:	29727b04 	addi	r5,r5,-13844
 2000a24:	20083340 	call	2008334 <strstr>
 2000a28:	10000c26 	beq	r2,zero,2000a5c <lcd_output+0x78>
    {
      temp_pos = strstr(delimiter_token, "=");
 2000a2c:	e13ffd17 	ldw	r4,-12(fp)
 2000a30:	01400f44 	movi	r5,61
 2000a34:	20073e00 	call	20073e0 <strchr>
 2000a38:	e0bffe15 	stw	r2,-8(fp)
      ++temp_pos;
 2000a3c:	e0bffe17 	ldw	r2,-8(fp)
 2000a40:	10800044 	addi	r2,r2,1
 2000a44:	e0bffe15 	stw	r2,-8(fp)
      /* LCD_TEXT is limited to 20 characters...limiting string to that size. */
      strncpy( board_funcs.LCD_TEXT, temp_pos, 20 );
 2000a48:	010098b4 	movhi	r4,610
 2000a4c:	21274b84 	addi	r4,r4,-25298
 2000a50:	e17ffe17 	ldw	r5,-8(fp)
 2000a54:	01800504 	movi	r6,20
 2000a58:	2007dec0 	call	2007dec <strncpy>
    }
    delimiter_token = strtok( NULL, "&" );
 2000a5c:	0009883a 	mov	r4,zero
 2000a60:	01408174 	movhi	r5,517
 2000a64:	29727704 	addi	r5,r5,-13860
 2000a68:	20086a80 	call	20086a8 <strtok>
 2000a6c:	e0bffd15 	stw	r2,-12(fp)
  char* delimiter_token;
  char* temp_pos;

  delimiter_token = strtok(conn->rx_rd_pos, "&");

  while( delimiter_token != NULL )
 2000a70:	e0bffd17 	ldw	r2,-12(fp)
 2000a74:	103fe81e 	bne	r2,zero,2000a18 <lcd_output+0x34>
    delimiter_token = strtok( NULL, "&" );
  }

  /* Clean up the HTTP-formatted text string.  For now this just replaces '+'s with spaces. */

  http_cleanup_lcd_text();
 2000a78:	20009600 	call	2000960 <http_cleanup_lcd_text>

  /* Post the updated LCD_TEXT to the board_control_mbox. */
  OSMboxPost(board_control_mbox, (void*)&board_funcs);
 2000a7c:	00808174 	movhi	r2,517
 2000a80:	10908904 	addi	r2,r2,16932
 2000a84:	10800017 	ldw	r2,0(r2)
 2000a88:	1009883a 	mov	r4,r2
 2000a8c:	014098b4 	movhi	r5,610
 2000a90:	29674b04 	addi	r5,r5,-25300
 2000a94:	2019ec80 	call	2019ec8 <OSMboxPost>

}
 2000a98:	e037883a 	mov	sp,fp
 2000a9c:	dfc00117 	ldw	ra,4(sp)
 2000aa0:	df000017 	ldw	fp,0(sp)
 2000aa4:	dec00204 	addi	sp,sp,8
 2000aa8:	f800283a 	ret

02000aac <http_parse_multipart_header>:

int http_parse_multipart_header( http_conn* conn )
{
 2000aac:	defffb04 	addi	sp,sp,-20
 2000ab0:	dfc00415 	stw	ra,16(sp)
 2000ab4:	df000315 	stw	fp,12(sp)
 2000ab8:	df000304 	addi	fp,sp,12
 2000abc:	e13fff15 	stw	r4,-4(fp)
  /* 
   * For now, make the assumption that no multipart headers are split
   * across packets.  This is a reasonable assumption, but not a surety.
   *
   */
  while( (temp_pos = strstr( conn->rx_rd_pos, conn->boundary )) )
 2000ac0:	00007e06 	br	2000cbc <http_parse_multipart_header+0x210>
  {
    if( strstr( conn->rx_rd_pos, "upload_image" ) )
 2000ac4:	e0bfff17 	ldw	r2,-4(fp)
 2000ac8:	10800d17 	ldw	r2,52(r2)
 2000acc:	1009883a 	mov	r4,r2
 2000ad0:	01408174 	movhi	r5,517
 2000ad4:	29727e04 	addi	r5,r5,-13832
 2000ad8:	20083340 	call	2008334 <strstr>
 2000adc:	10000626 	beq	r2,zero,2000af8 <http_parse_multipart_header+0x4c>
    {
      /* Terminate the received data by going back 5
       * from temp_pos and setting it to NULL.*/
      *(temp_pos-5) = '\0';
 2000ae0:	e0bffd17 	ldw	r2,-12(fp)
 2000ae4:	10bffec4 	addi	r2,r2,-5
 2000ae8:	10000005 	stb	zero,0(r2)
      conn->file_upload = 0;
 2000aec:	e0bfff17 	ldw	r2,-4(fp)
 2000af0:	10000a15 	stw	zero,40(r2)
      break;
 2000af4:	00007b06 	br	2000ce4 <http_parse_multipart_header+0x238>
    }
    /* Find the end of the content disposition line. */
    conn->rx_rd_pos = strstr( conn->rx_rd_pos, "Content-Disposition" );
 2000af8:	e0bfff17 	ldw	r2,-4(fp)
 2000afc:	10800d17 	ldw	r2,52(r2)
 2000b00:	1009883a 	mov	r4,r2
 2000b04:	01408174 	movhi	r5,517
 2000b08:	29728204 	addi	r5,r5,-13816
 2000b0c:	20083340 	call	2008334 <strstr>
 2000b10:	e0ffff17 	ldw	r3,-4(fp)
 2000b14:	18800d15 	stw	r2,52(r3)
    if( conn->rx_rd_pos == 0 ) return(-1);
 2000b18:	e0bfff17 	ldw	r2,-4(fp)
 2000b1c:	10800d17 	ldw	r2,52(r2)
 2000b20:	1000021e 	bne	r2,zero,2000b2c <http_parse_multipart_header+0x80>
 2000b24:	00bfffc4 	movi	r2,-1
 2000b28:	00006f06 	br	2000ce8 <http_parse_multipart_header+0x23c>
    cr_pos = strchr( conn->rx_rd_pos, '\r' );
 2000b2c:	e0bfff17 	ldw	r2,-4(fp)
 2000b30:	10800d17 	ldw	r2,52(r2)
 2000b34:	1009883a 	mov	r4,r2
 2000b38:	01400344 	movi	r5,13
 2000b3c:	20073e00 	call	20073e0 <strchr>
 2000b40:	e0bffe15 	stw	r2,-8(fp)
    if( cr_pos == 0 ) return(-1);
 2000b44:	e0bffe17 	ldw	r2,-8(fp)
 2000b48:	1000021e 	bne	r2,zero,2000b54 <http_parse_multipart_header+0xa8>
 2000b4c:	00bfffc4 	movi	r2,-1
 2000b50:	00006506 	br	2000ce8 <http_parse_multipart_header+0x23c>
    /* Insert a NULL byte over the second quotation mark. */
    *(cr_pos - 1) = '\0';
 2000b54:	e0bffe17 	ldw	r2,-8(fp)
 2000b58:	10bfffc4 	addi	r2,r2,-1
 2000b5c:	10000005 	stb	zero,0(r2)
    /* Move rx_rd_pos to end of the line, just beyond the newly
     * inserted NULL.
     */
    /* Look for "=" delimiter. */
    temp_pos = strchr( conn->rx_rd_pos, '=' );
 2000b60:	e0bfff17 	ldw	r2,-4(fp)
 2000b64:	10800d17 	ldw	r2,52(r2)
 2000b68:	1009883a 	mov	r4,r2
 2000b6c:	01400f44 	movi	r5,61
 2000b70:	20073e00 	call	20073e0 <strchr>
 2000b74:	e0bffd15 	stw	r2,-12(fp)
    if( temp_pos == 0 ) return(-1);
 2000b78:	e0bffd17 	ldw	r2,-12(fp)
 2000b7c:	1000021e 	bne	r2,zero,2000b88 <http_parse_multipart_header+0xdc>
 2000b80:	00bfffc4 	movi	r2,-1
 2000b84:	00005806 	br	2000ce8 <http_parse_multipart_header+0x23c>
    /* If second "=" delimiter exists, then parse for conn->filename. */
    if( (temp_pos = strchr( (temp_pos+1), '=' )) )
 2000b88:	e0bffd17 	ldw	r2,-12(fp)
 2000b8c:	10800044 	addi	r2,r2,1
 2000b90:	1009883a 	mov	r4,r2
 2000b94:	01400f44 	movi	r5,61
 2000b98:	20073e00 	call	20073e0 <strchr>
 2000b9c:	e0bffd15 	stw	r2,-12(fp)
 2000ba0:	e0bffd17 	ldw	r2,-12(fp)
 2000ba4:	10002826 	beq	r2,zero,2000c48 <http_parse_multipart_header+0x19c>
    {
			if( strlen(temp_pos+2) > 256 )
 2000ba8:	e0bffd17 	ldw	r2,-12(fp)
 2000bac:	10800084 	addi	r2,r2,2
 2000bb0:	1009883a 	mov	r4,r2
 2000bb4:	2007c640 	call	2007c64 <strlen>
 2000bb8:	10804070 	cmpltui	r2,r2,257
 2000bbc:	1000021e 	bne	r2,zero,2000bc8 <http_parse_multipart_header+0x11c>
			{
				return(-1);
 2000bc0:	00bfffc4 	movi	r2,-1
 2000bc4:	00004806 	br	2000ce8 <http_parse_multipart_header+0x23c>
			}
      strcpy( conn->filename, (temp_pos+2) );
 2000bc8:	e0bfff17 	ldw	r2,-4(fp)
 2000bcc:	10c01304 	addi	r3,r2,76
 2000bd0:	e0bffd17 	ldw	r2,-12(fp)
 2000bd4:	10800084 	addi	r2,r2,2
 2000bd8:	1809883a 	mov	r4,r3
 2000bdc:	100b883a 	mov	r5,r2
 2000be0:	200756c0 	call	200756c <strcpy>
      /* 
       * Place rx_rd_pos at the start of the next pertinent line. 
       * In this case, skip two lines ahead.
       */
      cr_pos = strchr( (cr_pos+1), '\r');
 2000be4:	e0bffe17 	ldw	r2,-8(fp)
 2000be8:	10800044 	addi	r2,r2,1
 2000bec:	1009883a 	mov	r4,r2
 2000bf0:	01400344 	movi	r5,13
 2000bf4:	20073e00 	call	20073e0 <strchr>
 2000bf8:	e0bffe15 	stw	r2,-8(fp)
      if( cr_pos == 0 ) return(-1);
 2000bfc:	e0bffe17 	ldw	r2,-8(fp)
 2000c00:	1000021e 	bne	r2,zero,2000c0c <http_parse_multipart_header+0x160>
 2000c04:	00bfffc4 	movi	r2,-1
 2000c08:	00003706 	br	2000ce8 <http_parse_multipart_header+0x23c>
      cr_pos = strchr( (cr_pos+1), '\r');
 2000c0c:	e0bffe17 	ldw	r2,-8(fp)
 2000c10:	10800044 	addi	r2,r2,1
 2000c14:	1009883a 	mov	r4,r2
 2000c18:	01400344 	movi	r5,13
 2000c1c:	20073e00 	call	20073e0 <strchr>
 2000c20:	e0bffe15 	stw	r2,-8(fp)
      if( cr_pos == 0 ) return(-1);
 2000c24:	e0bffe17 	ldw	r2,-8(fp)
 2000c28:	1000021e 	bne	r2,zero,2000c34 <http_parse_multipart_header+0x188>
 2000c2c:	00bfffc4 	movi	r2,-1
 2000c30:	00002d06 	br	2000ce8 <http_parse_multipart_header+0x23c>
      conn->rx_rd_pos = cr_pos+2;
 2000c34:	e0bffe17 	ldw	r2,-8(fp)
 2000c38:	10c00084 	addi	r3,r2,2
 2000c3c:	e0bfff17 	ldw	r2,-4(fp)
 2000c40:	10c00d15 	stw	r3,52(r2)
 2000c44:	00001d06 	br	2000cbc <http_parse_multipart_header+0x210>
      /* 
       * If no second delimiter, then skip ahead to start of 2nd. line.
       * That will be the start of the flash device name.
       *
       */
      temp_pos = strchr( (cr_pos+1), '\r' );
 2000c48:	e0bffe17 	ldw	r2,-8(fp)
 2000c4c:	10800044 	addi	r2,r2,1
 2000c50:	1009883a 	mov	r4,r2
 2000c54:	01400344 	movi	r5,13
 2000c58:	20073e00 	call	20073e0 <strchr>
 2000c5c:	e0bffd15 	stw	r2,-12(fp)
      conn->rx_rd_pos = temp_pos+2;
 2000c60:	e0bffd17 	ldw	r2,-12(fp)
 2000c64:	10c00084 	addi	r3,r2,2
 2000c68:	e0bfff17 	ldw	r2,-4(fp)
 2000c6c:	10c00d15 	stw	r3,52(r2)
      cr_pos = strchr( conn->rx_rd_pos, '\r' );
 2000c70:	e0bfff17 	ldw	r2,-4(fp)
 2000c74:	10800d17 	ldw	r2,52(r2)
 2000c78:	1009883a 	mov	r4,r2
 2000c7c:	01400344 	movi	r5,13
 2000c80:	20073e00 	call	20073e0 <strchr>
 2000c84:	e0bffe15 	stw	r2,-8(fp)
      *cr_pos = '\0';
 2000c88:	e0bffe17 	ldw	r2,-8(fp)
 2000c8c:	10000005 	stb	zero,0(r2)
      /* Ok, now copy the flash_device string. */
      strcpy( conn->flash_device, conn->rx_rd_pos );
 2000c90:	e0bfff17 	ldw	r2,-4(fp)
 2000c94:	10c05304 	addi	r3,r2,332
 2000c98:	e0bfff17 	ldw	r2,-4(fp)
 2000c9c:	10800d17 	ldw	r2,52(r2)
 2000ca0:	1809883a 	mov	r4,r3
 2000ca4:	100b883a 	mov	r5,r2
 2000ca8:	200756c0 	call	200756c <strcpy>
      /* Place rx_rd_pos at the start of the next line. */
      conn->rx_rd_pos = cr_pos+2;
 2000cac:	e0bffe17 	ldw	r2,-8(fp)
 2000cb0:	10c00084 	addi	r3,r2,2
 2000cb4:	e0bfff17 	ldw	r2,-4(fp)
 2000cb8:	10c00d15 	stw	r3,52(r2)
  /* 
   * For now, make the assumption that no multipart headers are split
   * across packets.  This is a reasonable assumption, but not a surety.
   *
   */
  while( (temp_pos = strstr( conn->rx_rd_pos, conn->boundary )) )
 2000cbc:	e0bfff17 	ldw	r2,-4(fp)
 2000cc0:	10c00d17 	ldw	r3,52(r2)
 2000cc4:	e0bfff17 	ldw	r2,-4(fp)
 2000cc8:	10806204 	addi	r2,r2,392
 2000ccc:	1809883a 	mov	r4,r3
 2000cd0:	100b883a 	mov	r5,r2
 2000cd4:	20083340 	call	2008334 <strstr>
 2000cd8:	e0bffd15 	stw	r2,-12(fp)
 2000cdc:	e0bffd17 	ldw	r2,-12(fp)
 2000ce0:	103f781e 	bne	r2,zero,2000ac4 <http_parse_multipart_header+0x18>
      strcpy( conn->flash_device, conn->rx_rd_pos );
      /* Place rx_rd_pos at the start of the next line. */
      conn->rx_rd_pos = cr_pos+2;
    }
  }
  return(0);
 2000ce4:	0005883a 	mov	r2,zero
}
 2000ce8:	e037883a 	mov	sp,fp
 2000cec:	dfc00117 	ldw	ra,4(sp)
 2000cf0:	df000017 	ldw	fp,0(sp)
 2000cf4:	dec00204 	addi	sp,sp,8
 2000cf8:	f800283a 	ret

02000cfc <file_upload>:

void file_upload(http_conn* conn)
{
 2000cfc:	defff904 	addi	sp,sp,-28
 2000d00:	dfc00615 	stw	ra,24(sp)
 2000d04:	df000515 	stw	fp,20(sp)
 2000d08:	df000504 	addi	fp,sp,20
 2000d0c:	e13fff15 	stw	r4,-4(fp)
  int buf_len;
  int data_used;
  struct upload_buf_struct *upload_buffer = &upload_buf;
 2000d10:	008081b4 	movhi	r2,518
 2000d14:	1083e904 	addi	r2,r2,4004
 2000d18:	e0bffb15 	stw	r2,-20(fp)
  struct flash_inf_struct *flash_info = &flash_inf;
 2000d1c:	008098b4 	movhi	r2,610
 2000d20:	10975604 	addi	r2,r2,23896
 2000d24:	e0bffc15 	stw	r2,-16(fp)
  /* Look for boundary, parse multipart form "mini" header information if found. */
  if( strstr( conn->rx_rd_pos, conn->boundary ) )
 2000d28:	e0bfff17 	ldw	r2,-4(fp)
 2000d2c:	10c00d17 	ldw	r3,52(r2)
 2000d30:	e0bfff17 	ldw	r2,-4(fp)
 2000d34:	10806204 	addi	r2,r2,392
 2000d38:	1809883a 	mov	r4,r3
 2000d3c:	100b883a 	mov	r5,r2
 2000d40:	20083340 	call	2008334 <strstr>
 2000d44:	10000926 	beq	r2,zero,2000d6c <file_upload+0x70>
  {
    if( http_parse_multipart_header( conn ) )
 2000d48:	e13fff17 	ldw	r4,-4(fp)
 2000d4c:	2000aac0 	call	2000aac <http_parse_multipart_header>
 2000d50:	10000626 	beq	r2,zero,2000d6c <file_upload+0x70>
    {
      printf( "multipart-form:  header parse failure...resetting connection!" );
 2000d54:	01008174 	movhi	r4,517
 2000d58:	21328704 	addi	r4,r4,-13796
 2000d5c:	2006a240 	call	2006a24 <printf>
      conn->state = RESET;
 2000d60:	e0bfff17 	ldw	r2,-4(fp)
 2000d64:	00c00104 	movi	r3,4
 2000d68:	10c00015 	stw	r3,0(r2)
    }
  }
  /* Exception for IE.  It sometimes sends _really_ small initial packets! */
  if( strchr( conn->rx_rd_pos, ':' ) )
 2000d6c:	e0bfff17 	ldw	r2,-4(fp)
 2000d70:	10800d17 	ldw	r2,52(r2)
 2000d74:	1009883a 	mov	r4,r2
 2000d78:	01400e84 	movi	r5,58
 2000d7c:	20073e00 	call	20073e0 <strchr>
 2000d80:	10000326 	beq	r2,zero,2000d90 <file_upload+0x94>
  {
    conn->state = READY;
 2000d84:	e0bfff17 	ldw	r2,-4(fp)
 2000d88:	10000015 	stw	zero,0(r2)
    return;
 2000d8c:	00007506 	br	2000f64 <file_upload+0x268>
  }
  /* Calculate the string size... */
  buf_len = strlen(conn->rx_rd_pos);
 2000d90:	e0bfff17 	ldw	r2,-4(fp)
 2000d94:	10800d17 	ldw	r2,52(r2)
 2000d98:	1009883a 	mov	r4,r2
 2000d9c:	2007c640 	call	2007c64 <strlen>
 2000da0:	e0bffd15 	stw	r2,-12(fp)
  conn->content_received = conn->content_received + buf_len;
 2000da4:	e0bfff17 	ldw	r2,-4(fp)
 2000da8:	10c00617 	ldw	r3,24(r2)
 2000dac:	e0bffd17 	ldw	r2,-12(fp)
 2000db0:	1887883a 	add	r3,r3,r2
 2000db4:	e0bfff17 	ldw	r2,-4(fp)
 2000db8:	10c00615 	stw	r3,24(r2)
  /* Copy all the received data into the upload buffer. */
  if ( memcpy( (void*) upload_buffer->wr_pos, 
 2000dbc:	e0bffb17 	ldw	r2,-20(fp)
 2000dc0:	11000017 	ldw	r4,0(r2)
               (void*) conn->rx_rd_pos, 
 2000dc4:	e0bfff17 	ldw	r2,-4(fp)
 2000dc8:	10c00d17 	ldw	r3,52(r2)
  }
  /* Calculate the string size... */
  buf_len = strlen(conn->rx_rd_pos);
  conn->content_received = conn->content_received + buf_len;
  /* Copy all the received data into the upload buffer. */
  if ( memcpy( (void*) upload_buffer->wr_pos, 
 2000dcc:	e0bffd17 	ldw	r2,-12(fp)
 2000dd0:	180b883a 	mov	r5,r3
 2000dd4:	100d883a 	mov	r6,r2
 2000dd8:	200660c0 	call	200660c <memcpy>
 2000ddc:	1000031e 	bne	r2,zero,2000dec <file_upload+0xf0>
               (void*) conn->rx_rd_pos, 
               buf_len ) == NULL )
  {
    printf( "ERROR:  memcpy to file upload buffer failed!" );
 2000de0:	01008174 	movhi	r4,517
 2000de4:	21329704 	addi	r4,r4,-13732
 2000de8:	2006a240 	call	2006a24 <printf>
  }
  /* Increment the wr_pos pointer to just after the received data. */
  upload_buffer->wr_pos = upload_buffer->wr_pos + buf_len;
 2000dec:	e0bffb17 	ldw	r2,-20(fp)
 2000df0:	10c00017 	ldw	r3,0(r2)
 2000df4:	e0bffd17 	ldw	r2,-12(fp)
 2000df8:	1887883a 	add	r3,r3,r2
 2000dfc:	e0bffb17 	ldw	r2,-20(fp)
 2000e00:	10c00015 	stw	r3,0(r2)
  conn->rx_rd_pos = conn->rx_rd_pos + buf_len;
 2000e04:	e0bfff17 	ldw	r2,-4(fp)
 2000e08:	10c00d17 	ldw	r3,52(r2)
 2000e0c:	e0bffd17 	ldw	r2,-12(fp)
 2000e10:	1887883a 	add	r3,r3,r2
 2000e14:	e0bfff17 	ldw	r2,-4(fp)
 2000e18:	10c00d15 	stw	r3,52(r2)
  /* Reset the buffers after copying the data into the big intermediate 
   * buffer.*/
  data_used = conn->rx_rd_pos - conn->rx_buffer;
 2000e1c:	e0bfff17 	ldw	r2,-4(fp)
 2000e20:	10800d17 	ldw	r2,52(r2)
 2000e24:	1007883a 	mov	r3,r2
 2000e28:	e0bfff17 	ldw	r2,-4(fp)
 2000e2c:	10801117 	ldw	r2,68(r2)
 2000e30:	1885c83a 	sub	r2,r3,r2
 2000e34:	e0bffe15 	stw	r2,-8(fp)
  memmove(conn->rx_buffer,conn->rx_rd_pos,conn->rx_wr_pos-conn->rx_rd_pos);
 2000e38:	e0bfff17 	ldw	r2,-4(fp)
 2000e3c:	11001117 	ldw	r4,68(r2)
 2000e40:	e0bfff17 	ldw	r2,-4(fp)
 2000e44:	10c00d17 	ldw	r3,52(r2)
 2000e48:	e0bfff17 	ldw	r2,-4(fp)
 2000e4c:	10800e17 	ldw	r2,56(r2)
 2000e50:	100b883a 	mov	r5,r2
 2000e54:	e0bfff17 	ldw	r2,-4(fp)
 2000e58:	10800d17 	ldw	r2,52(r2)
 2000e5c:	2885c83a 	sub	r2,r5,r2
 2000e60:	180b883a 	mov	r5,r3
 2000e64:	100d883a 	mov	r6,r2
 2000e68:	20067040 	call	2006704 <memmove>
  conn->rx_rd_pos = conn->rx_buffer;
 2000e6c:	e0bfff17 	ldw	r2,-4(fp)
 2000e70:	10c01117 	ldw	r3,68(r2)
 2000e74:	e0bfff17 	ldw	r2,-4(fp)
 2000e78:	10c00d15 	stw	r3,52(r2)
  conn->rx_wr_pos -= data_used;
 2000e7c:	e0bfff17 	ldw	r2,-4(fp)
 2000e80:	10c00e17 	ldw	r3,56(r2)
 2000e84:	e0bffe17 	ldw	r2,-8(fp)
 2000e88:	0085c83a 	sub	r2,zero,r2
 2000e8c:	1887883a 	add	r3,r3,r2
 2000e90:	e0bfff17 	ldw	r2,-4(fp)
 2000e94:	10c00e15 	stw	r3,56(r2)
  memset(conn->rx_wr_pos, 0, data_used);
 2000e98:	e0bfff17 	ldw	r2,-4(fp)
 2000e9c:	10c00e17 	ldw	r3,56(r2)
 2000ea0:	e0bffe17 	ldw	r2,-8(fp)
 2000ea4:	1809883a 	mov	r4,r3
 2000ea8:	000b883a 	mov	r5,zero
 2000eac:	100d883a 	mov	r6,r2
 2000eb0:	200682c0 	call	200682c <memset>
  if ( conn->file_upload == 0 )
 2000eb4:	e0bfff17 	ldw	r2,-4(fp)
 2000eb8:	10800a17 	ldw	r2,40(r2)
 2000ebc:	1000271e 	bne	r2,zero,2000f5c <file_upload+0x260>
  {
    printf( "Received a total of %d bytes.\n", conn->content_received );
 2000ec0:	e0bfff17 	ldw	r2,-4(fp)
 2000ec4:	10800617 	ldw	r2,24(r2)
 2000ec8:	01008174 	movhi	r4,517
 2000ecc:	2132a304 	addi	r4,r4,-13684
 2000ed0:	100b883a 	mov	r5,r2
 2000ed4:	2006a240 	call	2006a24 <printf>
    /* Insert a NULL character (temporarily). */
    *upload_buffer->wr_pos = '\0';
 2000ed8:	e0bffb17 	ldw	r2,-20(fp)
 2000edc:	10800017 	ldw	r2,0(r2)
 2000ee0:	10000005 	stb	zero,0(r2)
    /* Populate flash_info struct... print the buffer size. */
    flash_info->size = (int) strlen(upload_buffer->buffer);
 2000ee4:	e0bffb17 	ldw	r2,-20(fp)
 2000ee8:	10800204 	addi	r2,r2,8
 2000eec:	1009883a 	mov	r4,r2
 2000ef0:	2007c640 	call	2007c64 <strlen>
 2000ef4:	1007883a 	mov	r3,r2
 2000ef8:	e0bffc17 	ldw	r2,-16(fp)
 2000efc:	10c00115 	stw	r3,4(r2)
    printf( "Upload Buffer size = %d.\n", flash_info->size);
 2000f00:	e0bffc17 	ldw	r2,-16(fp)
 2000f04:	10800117 	ldw	r2,4(r2)
 2000f08:	01008174 	movhi	r4,517
 2000f0c:	2132ab04 	addi	r4,r4,-13652
 2000f10:	100b883a 	mov	r5,r2
 2000f14:	2006a240 	call	2006a24 <printf>
    strcpy( flash_info->device, conn->flash_device );
 2000f18:	e0bffc17 	ldw	r2,-16(fp)
 2000f1c:	10c00204 	addi	r3,r2,8
 2000f20:	e0bfff17 	ldw	r2,-4(fp)
 2000f24:	10805304 	addi	r2,r2,332
 2000f28:	1809883a 	mov	r4,r3
 2000f2c:	100b883a 	mov	r5,r2
 2000f30:	200756c0 	call	200756c <strcpy>
    flash_info->start = upload_buffer->rd_pos;
 2000f34:	e0bffb17 	ldw	r2,-20(fp)
 2000f38:	10c00117 	ldw	r3,4(r2)
 2000f3c:	e0bffc17 	ldw	r2,-16(fp)
 2000f40:	10c00015 	stw	r3,0(r2)
    /* Populate the flash_inf struct. */
    //printf( "Here's the Buffer:\n\n%s", upload_buffer->buffer);
    http_find_file(conn);
 2000f44:	e13fff17 	ldw	r4,-4(fp)
 2000f48:	20022d40 	call	20022d4 <http_find_file>
    conn->close = 1;
 2000f4c:	e0bfff17 	ldw	r2,-4(fp)
 2000f50:	00c00044 	movi	r3,1
 2000f54:	10c00415 	stw	r3,16(r2)
 2000f58:	00000206 	br	2000f64 <file_upload+0x268>
  }
  else
  {
    conn->state = READY;
 2000f5c:	e0bfff17 	ldw	r2,-4(fp)
 2000f60:	10000015 	stw	zero,0(r2)
  }
}
 2000f64:	e037883a 	mov	sp,fp
 2000f68:	dfc00117 	ldw	ra,4(sp)
 2000f6c:	df000017 	ldw	fp,0(sp)
 2000f70:	dec00204 	addi	sp,sp,8
 2000f74:	f800283a 	ret

02000f78 <ProgFlashStub>:
 *
 * A thin wrapper around the ProgSRECBuf() function in srec_flash.c.
 *
 */
void ProgFlashStub(http_conn* conn)
{
 2000f78:	defffc04 	addi	sp,sp,-16
 2000f7c:	dfc00315 	stw	ra,12(sp)
 2000f80:	df000215 	stw	fp,8(sp)
 2000f84:	df000204 	addi	fp,sp,8
 2000f88:	e13fff15 	stw	r4,-4(fp)
	struct flash_inf_struct *flash_info = &flash_inf;
 2000f8c:	008098b4 	movhi	r2,610
 2000f90:	10975604 	addi	r2,r2,23896
 2000f94:	e0bffe15 	stw	r2,-8(fp)
	/* Call ParseSRECBuf, with the flash_info argument. */
	ParseSRECBuf( flash_info );
 2000f98:	e13ffe17 	ldw	r4,-8(fp)
 2000f9c:	2003f000 	call	2003f00 <ParseSRECBuf>
	/* Go find and send the reset_system.html file. */
	http_find_file( conn );
 2000fa0:	e13fff17 	ldw	r4,-4(fp)
 2000fa4:	20022d40 	call	20022d4 <http_find_file>
	/* Close the connection. */
	conn->close = 1;
 2000fa8:	e0bfff17 	ldw	r2,-4(fp)
 2000fac:	00c00044 	movi	r3,1
 2000fb0:	10c00415 	stw	r3,16(r2)
  return;
 2000fb4:	0001883a 	nop
}
 2000fb8:	e037883a 	mov	sp,fp
 2000fbc:	dfc00117 	ldw	ra,4(sp)
 2000fc0:	df000017 	ldw	fp,0(sp)
 2000fc4:	dec00204 	addi	sp,sp,8
 2000fc8:	f800283a 	ret

02000fcc <http_reset_connection>:
 * 
 * This routine will clear our HTTP connection structure & prepare it to handle
 * a new HTTP connection.
 */
void http_reset_connection(http_conn* conn, int http_instance)
{
 2000fcc:	defffc04 	addi	sp,sp,-16
 2000fd0:	dfc00315 	stw	ra,12(sp)
 2000fd4:	df000215 	stw	fp,8(sp)
 2000fd8:	df000204 	addi	fp,sp,8
 2000fdc:	e13ffe15 	stw	r4,-8(fp)
 2000fe0:	e17fff15 	stw	r5,-4(fp)
  memset(conn, 0, sizeof(http_conn));
 2000fe4:	e13ffe17 	ldw	r4,-8(fp)
 2000fe8:	000b883a 	mov	r5,zero
 2000fec:	01887604 	movi	r6,8664
 2000ff0:	200682c0 	call	200682c <memset>

  conn->fd = -1;
 2000ff4:	e0bffe17 	ldw	r2,-8(fp)
 2000ff8:	00ffffc4 	movi	r3,-1
 2000ffc:	10c00315 	stw	r3,12(r2)
  conn->state = READY;
 2001000:	e0bffe17 	ldw	r2,-8(fp)
 2001004:	10000015 	stw	zero,0(r2)
  conn->keep_alive_count = HTTP_KEEP_ALIVE_COUNT;
 2001008:	e0bffe17 	ldw	r2,-8(fp)
 200100c:	00c00504 	movi	r3,20
 2001010:	10c00715 	stw	r3,28(r2)
  
  conn->rx_buffer = &http_rx_buffer[http_instance][0];
 2001014:	e0bfff17 	ldw	r2,-4(fp)
 2001018:	1006937a 	slli	r3,r2,13
 200101c:	008098b4 	movhi	r2,610
 2001020:	10a75584 	addi	r2,r2,-25258
 2001024:	1887883a 	add	r3,r3,r2
 2001028:	e0bffe17 	ldw	r2,-8(fp)
 200102c:	10c01115 	stw	r3,68(r2)
  conn->tx_buffer = &http_tx_buffer[http_instance][0];
 2001030:	e0bfff17 	ldw	r2,-4(fp)
 2001034:	1006937a 	slli	r3,r2,13
 2001038:	008098b4 	movhi	r2,610
 200103c:	10976204 	addi	r2,r2,23944
 2001040:	1887883a 	add	r3,r3,r2
 2001044:	e0bffe17 	ldw	r2,-8(fp)
 2001048:	10c01215 	stw	r3,72(r2)
  conn->rx_wr_pos = &http_rx_buffer[http_instance][0];
 200104c:	e0bfff17 	ldw	r2,-4(fp)
 2001050:	1006937a 	slli	r3,r2,13
 2001054:	008098b4 	movhi	r2,610
 2001058:	10a75584 	addi	r2,r2,-25258
 200105c:	1887883a 	add	r3,r3,r2
 2001060:	e0bffe17 	ldw	r2,-8(fp)
 2001064:	10c00e15 	stw	r3,56(r2)
  conn->rx_rd_pos = &http_rx_buffer[http_instance][0];
 2001068:	e0bfff17 	ldw	r2,-4(fp)
 200106c:	1006937a 	slli	r3,r2,13
 2001070:	008098b4 	movhi	r2,610
 2001074:	10a75584 	addi	r2,r2,-25258
 2001078:	1887883a 	add	r3,r3,r2
 200107c:	e0bffe17 	ldw	r2,-8(fp)
 2001080:	10c00d15 	stw	r3,52(r2)
}
 2001084:	e037883a 	mov	sp,fp
 2001088:	dfc00117 	ldw	ra,4(sp)
 200108c:	df000017 	ldw	fp,0(sp)
 2001090:	dec00204 	addi	sp,sp,8
 2001094:	f800283a 	ret

02001098 <http_manage_connection>:
 * structure. It is called from various points in the HTTP server code to
 * ensure that connections are reset properly on error, completion, and
 * to ensure that "zombie" connections are dealt with.
 */
void http_manage_connection(http_conn* conn, int http_instance)
{
 2001098:	defffb04 	addi	sp,sp,-20
 200109c:	dfc00415 	stw	ra,16(sp)
 20010a0:	df000315 	stw	fp,12(sp)
 20010a4:	df000304 	addi	fp,sp,12
 20010a8:	e13ffe15 	stw	r4,-8(fp)
 20010ac:	e17fff15 	stw	r5,-4(fp)
  alt_u32 current_time = 0;
 20010b0:	e03ffd15 	stw	zero,-12(fp)
  /*
   * Keep track of whether an open connection has timed out. This will be
   * determined by comparing the current time with that of the most recent
   * activity.
   */
  if(conn->state == READY || conn->state == PROCESS || conn->state == DATA)
 20010b4:	e0bffe17 	ldw	r2,-8(fp)
 20010b8:	10800017 	ldw	r2,0(r2)
 20010bc:	10000826 	beq	r2,zero,20010e0 <http_manage_connection+0x48>
 20010c0:	e0bffe17 	ldw	r2,-8(fp)
 20010c4:	10800017 	ldw	r2,0(r2)
 20010c8:	10800060 	cmpeqi	r2,r2,1
 20010cc:	1000041e 	bne	r2,zero,20010e0 <http_manage_connection+0x48>
 20010d0:	e0bffe17 	ldw	r2,-8(fp)
 20010d4:	10800017 	ldw	r2,0(r2)
 20010d8:	10800098 	cmpnei	r2,r2,2
 20010dc:	1000111e 	bne	r2,zero,2001124 <http_manage_connection+0x8c>
 * alt_nticks() returns the elapsed number of system clock ticks since reset.
 */

static ALT_INLINE alt_u32 ALT_ALWAYS_INLINE alt_nticks (void)
{
  return _alt_nticks;
 20010e0:	00808174 	movhi	r2,517
 20010e4:	10909604 	addi	r2,r2,16984
 20010e8:	10800017 	ldw	r2,0(r2)
  {
    current_time = alt_nticks();
 20010ec:	e0bffd15 	stw	r2,-12(fp)
    
    if( ((current_time - conn->activity_time) >= HTTP_KEEP_ALIVE_TIME) && conn->file_upload != 1 )
 20010f0:	e0bffe17 	ldw	r2,-8(fp)
 20010f4:	10800c17 	ldw	r2,48(r2)
 20010f8:	e0fffd17 	ldw	r3,-12(fp)
 20010fc:	1885c83a 	sub	r2,r3,r2
 2001100:	1084e230 	cmpltui	r2,r2,5000
 2001104:	1000071e 	bne	r2,zero,2001124 <http_manage_connection+0x8c>
 2001108:	e0bffe17 	ldw	r2,-8(fp)
 200110c:	10800a17 	ldw	r2,40(r2)
 2001110:	10800060 	cmpeqi	r2,r2,1
 2001114:	1000031e 	bne	r2,zero,2001124 <http_manage_connection+0x8c>
    {
      conn->state = RESET;
 2001118:	e0bffe17 	ldw	r2,-8(fp)
 200111c:	00c00104 	movi	r3,4
 2001120:	10c00015 	stw	r3,0(r2)
   * state machine as ready for additional connections... or not.
   *  - Only send so many files per connection. 
   *  - Stop when we reach a timeout.
   *  - If someone (like the client) asked to close the connection, do so.
   */
  if(conn->state == COMPLETE)
 2001124:	e0bffe17 	ldw	r2,-8(fp)
 2001128:	10800017 	ldw	r2,0(r2)
 200112c:	108000d8 	cmpnei	r2,r2,3
 2001130:	10001c1e 	bne	r2,zero,20011a4 <http_manage_connection+0x10c>
  {
    if(conn->file_handle != NULL)
 2001134:	e0bffe17 	ldw	r2,-8(fp)
 2001138:	10800b17 	ldw	r2,44(r2)
 200113c:	10000426 	beq	r2,zero,2001150 <http_manage_connection+0xb8>
    {
      fclose(conn->file_handle);
 2001140:	e0bffe17 	ldw	r2,-8(fp)
 2001144:	10800b17 	ldw	r2,44(r2)
 2001148:	1009883a 	mov	r4,r2
 200114c:	20046280 	call	2004628 <fclose>
    }
      
    conn->keep_alive_count--;
 2001150:	e0bffe17 	ldw	r2,-8(fp)
 2001154:	10800717 	ldw	r2,28(r2)
 2001158:	10ffffc4 	addi	r3,r2,-1
 200115c:	e0bffe17 	ldw	r2,-8(fp)
 2001160:	10c00715 	stw	r3,28(r2)
    conn->data_sent = 0;
 2001164:	e0bffe17 	ldw	r2,-8(fp)
 2001168:	10000915 	stw	zero,36(r2)
  
    if(conn->keep_alive_count == 0)
 200116c:	e0bffe17 	ldw	r2,-8(fp)
 2001170:	10800717 	ldw	r2,28(r2)
 2001174:	1000031e 	bne	r2,zero,2001184 <http_manage_connection+0xec>
    {
      conn->close = 1;
 2001178:	e0bffe17 	ldw	r2,-8(fp)
 200117c:	00c00044 	movi	r3,1
 2001180:	10c00415 	stw	r3,16(r2)
    }
    
    conn->state = conn->close ? CLOSE : READY;
 2001184:	e0bffe17 	ldw	r2,-8(fp)
 2001188:	10800417 	ldw	r2,16(r2)
 200118c:	10000226 	beq	r2,zero,2001198 <http_manage_connection+0x100>
 2001190:	00800144 	movi	r2,5
 2001194:	00000106 	br	200119c <http_manage_connection+0x104>
 2001198:	0005883a 	mov	r2,zero
 200119c:	e0fffe17 	ldw	r3,-8(fp)
 20011a0:	18800015 	stw	r2,0(r3)
   * Some error occured. http_reset_connection() will take care of most
   * things, but the RX buffer still needs to be cleared, and any open
   * files need to be closed. We do this in a separate state to maintain 
   * efficiency between successive (error-free) connections.
   */
  if(conn->state == RESET)
 20011a4:	e0bffe17 	ldw	r2,-8(fp)
 20011a8:	10800017 	ldw	r2,0(r2)
 20011ac:	10800118 	cmpnei	r2,r2,4
 20011b0:	1000101e 	bne	r2,zero,20011f4 <http_manage_connection+0x15c>
  {
    if(conn->file_handle != NULL)
 20011b4:	e0bffe17 	ldw	r2,-8(fp)
 20011b8:	10800b17 	ldw	r2,44(r2)
 20011bc:	10000426 	beq	r2,zero,20011d0 <http_manage_connection+0x138>
    {
      fclose(conn->file_handle);
 20011c0:	e0bffe17 	ldw	r2,-8(fp)
 20011c4:	10800b17 	ldw	r2,44(r2)
 20011c8:	1009883a 	mov	r4,r2
 20011cc:	20046280 	call	2004628 <fclose>
    }
      
    memset(conn->rx_buffer, 0, HTTP_RX_BUF_SIZE);
 20011d0:	e0bffe17 	ldw	r2,-8(fp)
 20011d4:	10801117 	ldw	r2,68(r2)
 20011d8:	1009883a 	mov	r4,r2
 20011dc:	000b883a 	mov	r5,zero
 20011e0:	01880004 	movi	r6,8192
 20011e4:	200682c0 	call	200682c <memset>
    conn->state = CLOSE;
 20011e8:	e0bffe17 	ldw	r2,-8(fp)
 20011ec:	00c00144 	movi	r3,5
 20011f0:	10c00015 	stw	r3,0(r2)
  }
  
  /* Close the TCP connection */
  if(conn->state == CLOSE)
 20011f4:	e0bffe17 	ldw	r2,-8(fp)
 20011f8:	10800017 	ldw	r2,0(r2)
 20011fc:	10800158 	cmpnei	r2,r2,5
 2001200:	1000071e 	bne	r2,zero,2001220 <http_manage_connection+0x188>
  {
    close(conn->fd);
 2001204:	e0bffe17 	ldw	r2,-8(fp)
 2001208:	10800317 	ldw	r2,12(r2)
 200120c:	1009883a 	mov	r4,r2
 2001210:	20237680 	call	2023768 <close>
    http_reset_connection(conn, http_instance);
 2001214:	e13ffe17 	ldw	r4,-8(fp)
 2001218:	e17fff17 	ldw	r5,-4(fp)
 200121c:	2000fcc0 	call	2000fcc <http_reset_connection>
  }
}
 2001220:	e037883a 	mov	sp,fp
 2001224:	dfc00117 	ldw	ra,4(sp)
 2001228:	df000017 	ldw	fp,0(sp)
 200122c:	dec00204 	addi	sp,sp,8
 2001230:	f800283a 	ret

02001234 <http_handle_accept>:
 * any open connection slots we will accept the connection (this creates a 
 * new socket for the data transfer), but if all available connections are in 
 * use we'll ignore the client's incoming connection request.
 */
int http_handle_accept(int listen_socket, http_conn* conn)
{
 2001234:	defff404 	addi	sp,sp,-48
 2001238:	dfc00b15 	stw	ra,44(sp)
 200123c:	df000a15 	stw	fp,40(sp)
 2001240:	df000a04 	addi	fp,sp,40
 2001244:	e13ffe15 	stw	r4,-8(fp)
 2001248:	e17fff15 	stw	r5,-4(fp)
  int ret_code = 0, i, socket, len;
 200124c:	e03ff715 	stw	zero,-36(fp)
  struct sockaddr_in  rem;

  len = sizeof(rem);
 2001250:	00800404 	movi	r2,16
 2001254:	e0bff915 	stw	r2,-28(fp)

  /* 
   * Loop through available connection slots to determine the first available
   * connection.
   */
  for(i=0; i<HTTP_NUM_CONNECTIONS; i++)
 2001258:	e03ff615 	stw	zero,-40(fp)
 200125c:	00000a06 	br	2001288 <http_handle_accept+0x54>
  {
    if((conn+i)->fd == -1)
 2001260:	e0bff617 	ldw	r2,-40(fp)
 2001264:	10887624 	muli	r2,r2,8664
 2001268:	e0ffff17 	ldw	r3,-4(fp)
 200126c:	1885883a 	add	r2,r3,r2
 2001270:	10800317 	ldw	r2,12(r2)
 2001274:	10bfffd8 	cmpnei	r2,r2,-1
 2001278:	10000726 	beq	r2,zero,2001298 <http_handle_accept+0x64>

  /* 
   * Loop through available connection slots to determine the first available
   * connection.
   */
  for(i=0; i<HTTP_NUM_CONNECTIONS; i++)
 200127c:	e0bff617 	ldw	r2,-40(fp)
 2001280:	10800044 	addi	r2,r2,1
 2001284:	e0bff615 	stw	r2,-40(fp)
 2001288:	e0bff617 	ldw	r2,-40(fp)
 200128c:	10800190 	cmplti	r2,r2,6
 2001290:	103ff31e 	bne	r2,zero,2001260 <http_handle_accept+0x2c>
 2001294:	00000106 	br	200129c <http_handle_accept+0x68>
  {
    if((conn+i)->fd == -1)
    {
      break;
 2001298:	0001883a 	nop
  
  /* 
   * There are no more connection slots available. Ignore the connection
   * request for now.
   */
  if(i == HTTP_NUM_CONNECTIONS)
 200129c:	e0bff617 	ldw	r2,-40(fp)
 20012a0:	10800198 	cmpnei	r2,r2,6
 20012a4:	1000021e 	bne	r2,zero,20012b0 <http_handle_accept+0x7c>
    return -1;
 20012a8:	00bfffc4 	movi	r2,-1
 20012ac:	00002306 	br	200133c <http_handle_accept+0x108>
      
  if((socket = accept(listen_socket,(struct sockaddr*)&rem,&len)) < 0)
 20012b0:	e0fffa04 	addi	r3,fp,-24
 20012b4:	e0bff904 	addi	r2,fp,-28
 20012b8:	e13ffe17 	ldw	r4,-8(fp)
 20012bc:	180b883a 	mov	r5,r3
 20012c0:	100d883a 	mov	r6,r2
 20012c4:	2025cd80 	call	2025cd8 <bsd_accept>
 20012c8:	e0bff815 	stw	r2,-32(fp)
 20012cc:	e0bff817 	ldw	r2,-32(fp)
 20012d0:	10000b0e 	bge	r2,zero,2001300 <http_handle_accept+0xcc>
  {
    fprintf(stderr, "[http_handle_accept] accept failed (%d)\n", socket);
 20012d4:	00808174 	movhi	r2,517
 20012d8:	10903604 	addi	r2,r2,16600
 20012dc:	10800017 	ldw	r2,0(r2)
 20012e0:	10800317 	ldw	r2,12(r2)
 20012e4:	1009883a 	mov	r4,r2
 20012e8:	01408174 	movhi	r5,517
 20012ec:	2972c204 	addi	r5,r5,-13560
 20012f0:	e1bff817 	ldw	r6,-32(fp)
 20012f4:	2004ce80 	call	2004ce8 <fprintf>
    return socket;
 20012f8:	e0bff817 	ldw	r2,-32(fp)
 20012fc:	00000f06 	br	200133c <http_handle_accept+0x108>
  }

  (conn+i)->fd = socket;
 2001300:	e0bff617 	ldw	r2,-40(fp)
 2001304:	10887624 	muli	r2,r2,8664
 2001308:	e0ffff17 	ldw	r3,-4(fp)
 200130c:	1885883a 	add	r2,r3,r2
 2001310:	e0fff817 	ldw	r3,-32(fp)
 2001314:	10c00315 	stw	r3,12(r2)
  (conn+i)->activity_time = alt_nticks();
 2001318:	e0bff617 	ldw	r2,-40(fp)
 200131c:	10887624 	muli	r2,r2,8664
 2001320:	e0ffff17 	ldw	r3,-4(fp)
 2001324:	1885883a 	add	r2,r3,r2
 2001328:	00c08174 	movhi	r3,517
 200132c:	18d09604 	addi	r3,r3,16984
 2001330:	18c00017 	ldw	r3,0(r3)
 2001334:	10c00c15 	stw	r3,48(r2)

  return ret_code;
 2001338:	e0bff717 	ldw	r2,-36(fp)
}
 200133c:	e037883a 	mov	sp,fp
 2001340:	dfc00117 	ldw	ra,4(sp)
 2001344:	df000017 	ldw	fp,0(sp)
 2001348:	dec00204 	addi	sp,sp,8
 200134c:	f800283a 	ret

02001350 <http_read_line>:
 * 
 * This routine will scan the RX data buffer for a newline, allowing us to
 * parse an in-coming HTTP request line-by-line.
 */
int http_read_line(http_conn* conn)
{
 2001350:	defffb04 	addi	sp,sp,-20
 2001354:	dfc00415 	stw	ra,16(sp)
 2001358:	df000315 	stw	fp,12(sp)
 200135c:	df000304 	addi	fp,sp,12
 2001360:	e13fff15 	stw	r4,-4(fp)
  char* lf_addr;
  int ret_code = 0;
 2001364:	e03ffd15 	stw	zero,-12(fp)

  /* Find the Carriage return which marks the end of the header */
  lf_addr = strchr(conn->rx_rd_pos, '\n');
 2001368:	e0bfff17 	ldw	r2,-4(fp)
 200136c:	10800d17 	ldw	r2,52(r2)
 2001370:	1009883a 	mov	r4,r2
 2001374:	01400284 	movi	r5,10
 2001378:	20073e00 	call	20073e0 <strchr>
 200137c:	e0bffe15 	stw	r2,-8(fp)
  
  if (lf_addr == NULL)
 2001380:	e0bffe17 	ldw	r2,-8(fp)
 2001384:	1000031e 	bne	r2,zero,2001394 <http_read_line+0x44>
  {
    ret_code = -1;
 2001388:	00bfffc4 	movi	r2,-1
 200138c:	e0bffd15 	stw	r2,-12(fp)
 2001390:	00001506 	br	20013e8 <http_read_line+0x98>
  {
    /* 
     * Check that the line feed has a matching CR, if so zero that
     * else zero the LF so we can use the string searching functions.
     */
    if ((lf_addr > conn->rx_buffer) && (*(lf_addr-1) == '\r'))
 2001394:	e0bfff17 	ldw	r2,-4(fp)
 2001398:	10c01117 	ldw	r3,68(r2)
 200139c:	e0bffe17 	ldw	r2,-8(fp)
 20013a0:	18800b2e 	bgeu	r3,r2,20013d0 <http_read_line+0x80>
 20013a4:	e0bffe17 	ldw	r2,-8(fp)
 20013a8:	10bfffc4 	addi	r2,r2,-1
 20013ac:	10800003 	ldbu	r2,0(r2)
 20013b0:	10803fcc 	andi	r2,r2,255
 20013b4:	1080201c 	xori	r2,r2,128
 20013b8:	10bfe004 	addi	r2,r2,-128
 20013bc:	10800358 	cmpnei	r2,r2,13
 20013c0:	1000031e 	bne	r2,zero,20013d0 <http_read_line+0x80>
    {
      *(lf_addr-1) = 0;
 20013c4:	e0bffe17 	ldw	r2,-8(fp)
 20013c8:	10bfffc4 	addi	r2,r2,-1
 20013cc:	10000005 	stb	zero,0(r2)
    }

    *lf_addr = 0;
 20013d0:	e0bffe17 	ldw	r2,-8(fp)
 20013d4:	10000005 	stb	zero,0(r2)
    conn->rx_rd_pos = lf_addr+1;
 20013d8:	e0bffe17 	ldw	r2,-8(fp)
 20013dc:	10c00044 	addi	r3,r2,1
 20013e0:	e0bfff17 	ldw	r2,-4(fp)
 20013e4:	10c00d15 	stw	r3,52(r2)
  }

  return ret_code;
 20013e8:	e0bffd17 	ldw	r2,-12(fp)
}
 20013ec:	e037883a 	mov	sp,fp
 20013f0:	dfc00117 	ldw	ra,4(sp)
 20013f4:	df000017 	ldw	fp,0(sp)
 20013f8:	dec00204 	addi	sp,sp,8
 20013fc:	f800283a 	ret

02001400 <http_parse_type_boundary>:
 *   - Content-Type, Content-Disposition, boundary, etc.
 */
int http_parse_type_boundary( http_conn* conn,
                                char* start,
                                int len )
{
 2001400:	deffb904 	addi	sp,sp,-284
 2001404:	dfc04615 	stw	ra,280(sp)
 2001408:	df004515 	stw	fp,276(sp)
 200140c:	df004504 	addi	fp,sp,276
 2001410:	e13ffd15 	stw	r4,-12(fp)
 2001414:	e17ffe15 	stw	r5,-8(fp)
 2001418:	e1bfff15 	stw	r6,-4(fp)
  char* delimiter;
  char* boundary_start;
  char line[HTTP_MAX_LINE_SIZE];
  
  /* Copy the Content-Type/Boundary line. */
  if( len > HTTP_MAX_LINE_SIZE )
 200141c:	e0bfff17 	ldw	r2,-4(fp)
 2001420:	10804050 	cmplti	r2,r2,257
 2001424:	1000051e 	bne	r2,zero,200143c <http_parse_type_boundary+0x3c>
  {
    printf( "process headers:  overflow content-type/boundary parsing.\n" );
 2001428:	01008174 	movhi	r4,517
 200142c:	2132cd04 	addi	r4,r4,-13516
 2001430:	2006cb40 	call	2006cb4 <puts>
    return(-1);
 2001434:	00bfffc4 	movi	r2,-1
 2001438:	00002c06 	br	20014ec <http_parse_type_boundary+0xec>
  }
  strncpy( line, start, len );
 200143c:	e0bfff17 	ldw	r2,-4(fp)
 2001440:	e0ffbd04 	addi	r3,fp,-268
 2001444:	1809883a 	mov	r4,r3
 2001448:	e17ffe17 	ldw	r5,-8(fp)
 200144c:	100d883a 	mov	r6,r2
 2001450:	2007dec0 	call	2007dec <strncpy>
  /* Add a null byte to the end of it. */
  *(line + len) = '\0';
 2001454:	e0bfff17 	ldw	r2,-4(fp)
 2001458:	e0ffbd04 	addi	r3,fp,-268
 200145c:	1885883a 	add	r2,r3,r2
 2001460:	10000005 	stb	zero,0(r2)
  /* Get the Content-Type value. */
  if( (delimiter = strchr( line, ';' )) )
 2001464:	e0bfbd04 	addi	r2,fp,-268
 2001468:	1009883a 	mov	r4,r2
 200146c:	01400ec4 	movi	r5,59
 2001470:	20073e00 	call	20073e0 <strchr>
 2001474:	e0bfbb15 	stw	r2,-276(fp)
 2001478:	e0bfbb17 	ldw	r2,-276(fp)
 200147c:	10001426 	beq	r2,zero,20014d0 <http_parse_type_boundary+0xd0>
  {
    /* Need to parse both a boundary and Content-Type. */
    boundary_start = strchr( line, '=' ) + 2;
 2001480:	e0bfbd04 	addi	r2,fp,-268
 2001484:	1009883a 	mov	r4,r2
 2001488:	01400f44 	movi	r5,61
 200148c:	20073e00 	call	20073e0 <strchr>
 2001490:	10800084 	addi	r2,r2,2
 2001494:	e0bfbc15 	stw	r2,-272(fp)
    strcpy( conn->boundary, boundary_start);
 2001498:	e0bffd17 	ldw	r2,-12(fp)
 200149c:	10806204 	addi	r2,r2,392
 20014a0:	1009883a 	mov	r4,r2
 20014a4:	e17fbc17 	ldw	r5,-272(fp)
 20014a8:	200756c0 	call	200756c <strcpy>
    /* Insert a null space in place of the delimiter. */
    *delimiter = '\0';
 20014ac:	e0bfbb17 	ldw	r2,-276(fp)
 20014b0:	10000005 	stb	zero,0(r2)
    /* First part of the line is the Content-Type. */
    strcpy( conn->content_type, line);
 20014b4:	e0bffd17 	ldw	r2,-12(fp)
 20014b8:	10c05804 	addi	r3,r2,352
 20014bc:	e0bfbd04 	addi	r2,fp,-268
 20014c0:	1809883a 	mov	r4,r3
 20014c4:	100b883a 	mov	r5,r2
 20014c8:	200756c0 	call	200756c <strcpy>
 20014cc:	00000606 	br	20014e8 <http_parse_type_boundary+0xe8>
  }
  else
  {
    strcpy( conn->content_type, line );
 20014d0:	e0bffd17 	ldw	r2,-12(fp)
 20014d4:	10c05804 	addi	r3,r2,352
 20014d8:	e0bfbd04 	addi	r2,fp,-268
 20014dc:	1809883a 	mov	r4,r3
 20014e0:	100b883a 	mov	r5,r2
 20014e4:	200756c0 	call	200756c <strcpy>
  }
  return 0;
 20014e8:	0005883a 	mov	r2,zero
}
 20014ec:	e037883a 	mov	sp,fp
 20014f0:	dfc00117 	ldw	ra,4(sp)
 20014f4:	df000017 	ldw	fp,0(sp)
 20014f8:	dec00204 	addi	sp,sp,8
 20014fc:	f800283a 	ret

02001500 <http_process_headers>:
 * This routine should be modified in the future not to use strtok() as its
 * a bit invasive and is not thread-safe!
 * 
 */
int http_process_headers(http_conn* conn)
{
 2001500:	defff404 	addi	sp,sp,-48
 2001504:	dfc00b15 	stw	ra,44(sp)
 2001508:	df000a15 	stw	fp,40(sp)
 200150c:	df000a04 	addi	fp,sp,40
 2001510:	e13fff15 	stw	r4,-4(fp)
  char* option;
  char* cr_pos;
  char* ct_start;
  char* orig_read_pos = conn->rx_rd_pos;
 2001514:	e0bfff17 	ldw	r2,-4(fp)
 2001518:	10800d17 	ldw	r2,52(r2)
 200151c:	e0bff615 	stw	r2,-40(fp)
  /* 
   * A boundary was found.  This is a multi-part form
   * and header processing stops here!
   * 
   */
  if( (conn->boundary[0] == '-') && (conn->content_length > 0) )
 2001520:	e0bfff17 	ldw	r2,-4(fp)
 2001524:	10806203 	ldbu	r2,392(r2)
 2001528:	10803fcc 	andi	r2,r2,255
 200152c:	1080201c 	xori	r2,r2,128
 2001530:	10bfe004 	addi	r2,r2,-128
 2001534:	10800b58 	cmpnei	r2,r2,45
 2001538:	10000d1e 	bne	r2,zero,2001570 <http_process_headers+0x70>
 200153c:	e0bfff17 	ldw	r2,-4(fp)
 2001540:	10800517 	ldw	r2,20(r2)
 2001544:	00800a0e 	bge	zero,r2,2001570 <http_process_headers+0x70>

  {
    boundary_start = strstr( conn->rx_rd_pos, conn->boundary );
 2001548:	e0bfff17 	ldw	r2,-4(fp)
 200154c:	10c00d17 	ldw	r3,52(r2)
 2001550:	e0bfff17 	ldw	r2,-4(fp)
 2001554:	10806204 	addi	r2,r2,392
 2001558:	1809883a 	mov	r4,r3
 200155c:	100b883a 	mov	r5,r2
 2001560:	20083340 	call	2008334 <strstr>
 2001564:	e0bff715 	stw	r2,-36(fp)
    //conn->rx_rd_pos = boundary_start + strlen(conn->boundary);
    return -1;
 2001568:	00bfffc4 	movi	r2,-1
 200156c:	00006406 	br	2001700 <http_process_headers+0x200>
  }
  /* Skip the next section we'll chop with strtok(). Perl for Nios, anyone? */
  else if( (delimiter_token = strchr(conn->rx_rd_pos, ':')) )
 2001570:	e0bfff17 	ldw	r2,-4(fp)
 2001574:	10800d17 	ldw	r2,52(r2)
 2001578:	1009883a 	mov	r4,r2
 200157c:	01400e84 	movi	r5,58
 2001580:	20073e00 	call	20073e0 <strchr>
 2001584:	e0bff815 	stw	r2,-32(fp)
 2001588:	e0bff817 	ldw	r2,-32(fp)
 200158c:	10001726 	beq	r2,zero,20015ec <http_process_headers+0xec>
  {
    conn->rx_rd_pos = delimiter_token + 1;
 2001590:	e0bff817 	ldw	r2,-32(fp)
 2001594:	10c00044 	addi	r3,r2,1
 2001598:	e0bfff17 	ldw	r2,-4(fp)
 200159c:	10c00d15 	stw	r3,52(r2)
    conn->content_received = conn->rx_rd_pos - conn->rx_buffer;
 20015a0:	e0bfff17 	ldw	r2,-4(fp)
 20015a4:	10800d17 	ldw	r2,52(r2)
 20015a8:	1007883a 	mov	r3,r2
 20015ac:	e0bfff17 	ldw	r2,-4(fp)
 20015b0:	10801117 	ldw	r2,68(r2)
 20015b4:	1887c83a 	sub	r3,r3,r2
 20015b8:	e0bfff17 	ldw	r2,-4(fp)
 20015bc:	10c00615 	stw	r3,24(r2)
  else
  {
    return -1;
  }
  
  option = strtok(orig_read_pos, ":");
 20015c0:	e13ff617 	ldw	r4,-40(fp)
 20015c4:	01408174 	movhi	r5,517
 20015c8:	2972dc04 	addi	r5,r5,-13456
 20015cc:	20086a80 	call	20086a8 <strtok>
 20015d0:	e0bff915 	stw	r2,-28(fp)

  if(stricmp(option,"Connection") == 0)
 20015d4:	e13ff917 	ldw	r4,-28(fp)
 20015d8:	01408174 	movhi	r5,517
 20015dc:	2972dd04 	addi	r5,r5,-13452
 20015e0:	20072940 	call	2007294 <strcasecmp>
 20015e4:	10000326 	beq	r2,zero,20015f4 <http_process_headers+0xf4>
 20015e8:	00001706 	br	2001648 <http_process_headers+0x148>
    conn->rx_rd_pos = delimiter_token + 1;
    conn->content_received = conn->rx_rd_pos - conn->rx_buffer;
  }
  else
  {
    return -1;
 20015ec:	00bfffc4 	movi	r2,-1
 20015f0:	00004306 	br	2001700 <http_process_headers+0x200>
  
  option = strtok(orig_read_pos, ":");

  if(stricmp(option,"Connection") == 0)
  {
    temp_null = *(option + 17);
 20015f4:	e0bff917 	ldw	r2,-28(fp)
 20015f8:	10800443 	ldbu	r2,17(r2)
 20015fc:	e0bffa05 	stb	r2,-24(fp)
    *(option + 17) = 0;
 2001600:	e0bff917 	ldw	r2,-28(fp)
 2001604:	10800444 	addi	r2,r2,17
 2001608:	10000005 	stb	zero,0(r2)
    
    if(stricmp((option+12), "close") == 0)
 200160c:	e0bff917 	ldw	r2,-28(fp)
 2001610:	10800304 	addi	r2,r2,12
 2001614:	1009883a 	mov	r4,r2
 2001618:	01408174 	movhi	r5,517
 200161c:	2972e004 	addi	r5,r5,-13440
 2001620:	20072940 	call	2007294 <strcasecmp>
 2001624:	1000031e 	bne	r2,zero,2001634 <http_process_headers+0x134>
    {
      conn->close = 1;
 2001628:	e0bfff17 	ldw	r2,-4(fp)
 200162c:	00c00044 	movi	r3,1
 2001630:	10c00415 	stw	r3,16(r2)
    }
    *(option + 17) = temp_null;
 2001634:	e0bff917 	ldw	r2,-28(fp)
 2001638:	10800444 	addi	r2,r2,17
 200163c:	e0fffa03 	ldbu	r3,-24(fp)
 2001640:	10c00005 	stb	r3,0(r2)
 2001644:	00002d06 	br	20016fc <http_process_headers+0x1fc>
  }
  else if (stricmp(option, "Content-Length") == 0)
 2001648:	e13ff917 	ldw	r4,-28(fp)
 200164c:	01408174 	movhi	r5,517
 2001650:	2972e204 	addi	r5,r5,-13432
 2001654:	20072940 	call	2007294 <strcasecmp>
 2001658:	1000071e 	bne	r2,zero,2001678 <http_process_headers+0x178>
  {
    conn->content_length = atoi(option+16);
 200165c:	e0bff917 	ldw	r2,-28(fp)
 2001660:	10800404 	addi	r2,r2,16
 2001664:	1009883a 	mov	r4,r2
 2001668:	20044d40 	call	20044d4 <atoi>
 200166c:	e0ffff17 	ldw	r3,-4(fp)
 2001670:	18800515 	stw	r2,20(r3)
 2001674:	00002106 	br	20016fc <http_process_headers+0x1fc>
    //printf( "Content Length = %d.\n", conn->content_length );
  }
  /* When getting the Content-Type, get the whole line and throw it
   * to another function.  This will be done several times.
   */
  else if (stricmp(option, "Content-Type" ) == 0)
 2001678:	e13ff917 	ldw	r4,-28(fp)
 200167c:	01408174 	movhi	r5,517
 2001680:	2972e604 	addi	r5,r5,-13416
 2001684:	20072940 	call	2007294 <strcasecmp>
 2001688:	10001c1e 	bne	r2,zero,20016fc <http_process_headers+0x1fc>
  {
    /* Determine the end of line for "Content-Type" line. */
    cr_pos = strchr( conn->rx_rd_pos, '\r' );
 200168c:	e0bfff17 	ldw	r2,-4(fp)
 2001690:	10800d17 	ldw	r2,52(r2)
 2001694:	1009883a 	mov	r4,r2
 2001698:	01400344 	movi	r5,13
 200169c:	20073e00 	call	20073e0 <strchr>
 20016a0:	e0bffb15 	stw	r2,-20(fp)
    /* Find the length of the string. */
    opt_len = strlen(option);
 20016a4:	e13ff917 	ldw	r4,-28(fp)
 20016a8:	2007c640 	call	2007c64 <strlen>
 20016ac:	e0bffc15 	stw	r2,-16(fp)
    ct_len = cr_pos - (option + opt_len + 2);
 20016b0:	e0fffb17 	ldw	r3,-20(fp)
 20016b4:	e0bffc17 	ldw	r2,-16(fp)
 20016b8:	10800084 	addi	r2,r2,2
 20016bc:	e13ff917 	ldw	r4,-28(fp)
 20016c0:	2085883a 	add	r2,r4,r2
 20016c4:	1885c83a 	sub	r2,r3,r2
 20016c8:	e0bffd15 	stw	r2,-12(fp)
    /* Calculate the start of the string. */
    ct_start = cr_pos - ct_len;
 20016cc:	e0bffd17 	ldw	r2,-12(fp)
 20016d0:	0085c83a 	sub	r2,zero,r2
 20016d4:	e0fffb17 	ldw	r3,-20(fp)
 20016d8:	1885883a 	add	r2,r3,r2
 20016dc:	e0bffe15 	stw	r2,-8(fp)
    /* Pass the start of the string and the size of the string to 
     * a function.
     */
    if( (http_parse_type_boundary( conn, ct_start, ct_len ) < 0) )
 20016e0:	e13fff17 	ldw	r4,-4(fp)
 20016e4:	e17ffe17 	ldw	r5,-8(fp)
 20016e8:	e1bffd17 	ldw	r6,-12(fp)
 20016ec:	20014000 	call	2001400 <http_parse_type_boundary>
 20016f0:	1000020e 	bge	r2,zero,20016fc <http_process_headers+0x1fc>
    {
      /* Something failed...return a negative value. */
      return -1;
 20016f4:	00bfffc4 	movi	r2,-1
 20016f8:	00000106 	br	2001700 <http_process_headers+0x200>
    }
  }
  return 0;
 20016fc:	0005883a 	mov	r2,zero
}
 2001700:	e037883a 	mov	sp,fp
 2001704:	dfc00117 	ldw	ra,4(sp)
 2001708:	df000017 	ldw	fp,0(sp)
 200170c:	dec00204 	addi	sp,sp,8
 2001710:	f800283a 	ret

02001714 <http_process_request>:
 * This routine parses the beginnings of an HTTP request to extract the
 * command, version, and URI. Unsupported commands/versions/etc. will cause
 * us to error out drop the connection.
 */
int http_process_request(http_conn* conn)
{
 2001714:	defffa04 	addi	sp,sp,-24
 2001718:	dfc00515 	stw	ra,20(sp)
 200171c:	df000415 	stw	fp,16(sp)
 2001720:	df000404 	addi	fp,sp,16
 2001724:	e13fff15 	stw	r4,-4(fp)
  char* uri = 0;
 2001728:	e03ffc15 	stw	zero,-16(fp)
  char* version = 0;
 200172c:	e03ffd15 	stw	zero,-12(fp)
  char* temp = 0;
 2001730:	e03ffe15 	stw	zero,-8(fp)
  if( (temp = strstr(conn->rx_rd_pos, "GET")) )
 2001734:	e0bfff17 	ldw	r2,-4(fp)
 2001738:	10800d17 	ldw	r2,52(r2)
 200173c:	1009883a 	mov	r4,r2
 2001740:	01408174 	movhi	r5,517
 2001744:	2972ea04 	addi	r5,r5,-13400
 2001748:	20083340 	call	2008334 <strstr>
 200174c:	e0bffe15 	stw	r2,-8(fp)
 2001750:	e0bffe17 	ldw	r2,-8(fp)
 2001754:	10000726 	beq	r2,zero,2001774 <http_process_request+0x60>
  {
    conn->action = GET;
 2001758:	e0bfff17 	ldw	r2,-4(fp)
 200175c:	00c00044 	movi	r3,1
 2001760:	10c00115 	stw	r3,4(r2)
    conn->rx_rd_pos = temp;
 2001764:	e0bfff17 	ldw	r2,-4(fp)
 2001768:	e0fffe17 	ldw	r3,-8(fp)
 200176c:	10c00d15 	stw	r3,52(r2)
 2001770:	00001e06 	br	20017ec <http_process_request+0xd8>
  }
  else if( (temp = strstr(conn->rx_rd_pos, "POST")) )
 2001774:	e0bfff17 	ldw	r2,-4(fp)
 2001778:	10800d17 	ldw	r2,52(r2)
 200177c:	1009883a 	mov	r4,r2
 2001780:	01408174 	movhi	r5,517
 2001784:	2972eb04 	addi	r5,r5,-13396
 2001788:	20083340 	call	2008334 <strstr>
 200178c:	e0bffe15 	stw	r2,-8(fp)
 2001790:	e0bffe17 	ldw	r2,-8(fp)
 2001794:	10000726 	beq	r2,zero,20017b4 <http_process_request+0xa0>
  {
    conn->action = POST;
 2001798:	e0bfff17 	ldw	r2,-4(fp)
 200179c:	00c00084 	movi	r3,2
 20017a0:	10c00115 	stw	r3,4(r2)
    conn->rx_rd_pos = temp;
 20017a4:	e0bfff17 	ldw	r2,-4(fp)
 20017a8:	e0fffe17 	ldw	r3,-8(fp)
 20017ac:	10c00d15 	stw	r3,52(r2)
 20017b0:	00000e06 	br	20017ec <http_process_request+0xd8>
  }
  else
  {
    fprintf(stderr, "Unsupported (for now) request\n");
 20017b4:	00808174 	movhi	r2,517
 20017b8:	10903604 	addi	r2,r2,16600
 20017bc:	10800017 	ldw	r2,0(r2)
 20017c0:	10800317 	ldw	r2,12(r2)
 20017c4:	01008174 	movhi	r4,517
 20017c8:	2132ed04 	addi	r4,r4,-13388
 20017cc:	01400044 	movi	r5,1
 20017d0:	01800784 	movi	r6,30
 20017d4:	100f883a 	mov	r7,r2
 20017d8:	2005ba80 	call	2005ba8 <fwrite>
    conn->action = UNKNOWN;
 20017dc:	e0bfff17 	ldw	r2,-4(fp)
 20017e0:	10000115 	stw	zero,4(r2)
    return -1;
 20017e4:	00bfffc4 	movi	r2,-1
 20017e8:	00007806 	br	20019cc <http_process_request+0x2b8>
  }
  
  /* First space char separates action from URI */
  if( (conn->rx_rd_pos = strchr(conn->rx_rd_pos, ' ')) )
 20017ec:	e0bfff17 	ldw	r2,-4(fp)
 20017f0:	10800d17 	ldw	r2,52(r2)
 20017f4:	1009883a 	mov	r4,r2
 20017f8:	01400804 	movi	r5,32
 20017fc:	20073e00 	call	20073e0 <strchr>
 2001800:	e0ffff17 	ldw	r3,-4(fp)
 2001804:	18800d15 	stw	r2,52(r3)
 2001808:	e0bfff17 	ldw	r2,-4(fp)
 200180c:	10800d17 	ldw	r2,52(r2)
 2001810:	10001326 	beq	r2,zero,2001860 <http_process_request+0x14c>
  {
    conn->rx_rd_pos++;
 2001814:	e0bfff17 	ldw	r2,-4(fp)
 2001818:	10800d17 	ldw	r2,52(r2)
 200181c:	10c00044 	addi	r3,r2,1
 2001820:	e0bfff17 	ldw	r2,-4(fp)
 2001824:	10c00d15 	stw	r3,52(r2)
    uri = conn->rx_rd_pos;
 2001828:	e0bfff17 	ldw	r2,-4(fp)
 200182c:	10800d17 	ldw	r2,52(r2)
 2001830:	e0bffc15 	stw	r2,-16(fp)
  {
    return -1;
  }
    
  /* Second space char separates URI from HTTP version. */
  if( (conn->rx_rd_pos = strchr(conn->rx_rd_pos, ' ')) )
 2001834:	e0bfff17 	ldw	r2,-4(fp)
 2001838:	10800d17 	ldw	r2,52(r2)
 200183c:	1009883a 	mov	r4,r2
 2001840:	01400804 	movi	r5,32
 2001844:	20073e00 	call	20073e0 <strchr>
 2001848:	e0ffff17 	ldw	r3,-4(fp)
 200184c:	18800d15 	stw	r2,52(r3)
 2001850:	e0bfff17 	ldw	r2,-4(fp)
 2001854:	10800d17 	ldw	r2,52(r2)
 2001858:	1000031e 	bne	r2,zero,2001868 <http_process_request+0x154>
 200185c:	00001006 	br	20018a0 <http_process_request+0x18c>
    conn->rx_rd_pos++;
    uri = conn->rx_rd_pos;
  }
  else
  {
    return -1;
 2001860:	00bfffc4 	movi	r2,-1
 2001864:	00005906 	br	20019cc <http_process_request+0x2b8>
  }
    
  /* Second space char separates URI from HTTP version. */
  if( (conn->rx_rd_pos = strchr(conn->rx_rd_pos, ' ')) )
  {
    *conn->rx_rd_pos = 0;
 2001868:	e0bfff17 	ldw	r2,-4(fp)
 200186c:	10800d17 	ldw	r2,52(r2)
 2001870:	10000005 	stb	zero,0(r2)
    conn->rx_rd_pos++;
 2001874:	e0bfff17 	ldw	r2,-4(fp)
 2001878:	10800d17 	ldw	r2,52(r2)
 200187c:	10c00044 	addi	r3,r2,1
 2001880:	e0bfff17 	ldw	r2,-4(fp)
 2001884:	10c00d15 	stw	r3,52(r2)
    version = conn->rx_rd_pos;
 2001888:	e0bfff17 	ldw	r2,-4(fp)
 200188c:	10800d17 	ldw	r2,52(r2)
 2001890:	e0bffd15 	stw	r2,-12(fp)
  {
    return -1;
  }
  
  /* Is this an HTTP version we support? */
  if ((version == NULL) || (strncmp(version, "HTTP/", 5) != 0))
 2001894:	e0bffd17 	ldw	r2,-12(fp)
 2001898:	10000926 	beq	r2,zero,20018c0 <http_process_request+0x1ac>
 200189c:	00000206 	br	20018a8 <http_process_request+0x194>
    conn->rx_rd_pos++;
    version = conn->rx_rd_pos;
  }
  else
  {
    return -1;
 20018a0:	00bfffc4 	movi	r2,-1
 20018a4:	00004906 	br	20019cc <http_process_request+0x2b8>
  }
  
  /* Is this an HTTP version we support? */
  if ((version == NULL) || (strncmp(version, "HTTP/", 5) != 0))
 20018a8:	e13ffd17 	ldw	r4,-12(fp)
 20018ac:	01408174 	movhi	r5,517
 20018b0:	2972f504 	addi	r5,r5,-13356
 20018b4:	01800144 	movi	r6,5
 20018b8:	2007cf00 	call	2007cf0 <strncmp>
 20018bc:	10000226 	beq	r2,zero,20018c8 <http_process_request+0x1b4>
  {
    return -1;
 20018c0:	00bfffc4 	movi	r2,-1
 20018c4:	00004106 	br	20019cc <http_process_request+0x2b8>
  }

  if (!isdigit(version[5]) || version[6] != '.' || !isdigit(version[7]))
 20018c8:	00808174 	movhi	r2,517
 20018cc:	10903404 	addi	r2,r2,16592
 20018d0:	10c00017 	ldw	r3,0(r2)
 20018d4:	e0bffd17 	ldw	r2,-12(fp)
 20018d8:	10800144 	addi	r2,r2,5
 20018dc:	10800003 	ldbu	r2,0(r2)
 20018e0:	10803fcc 	andi	r2,r2,255
 20018e4:	1080201c 	xori	r2,r2,128
 20018e8:	10bfe004 	addi	r2,r2,-128
 20018ec:	1885883a 	add	r2,r3,r2
 20018f0:	10800003 	ldbu	r2,0(r2)
 20018f4:	10803fcc 	andi	r2,r2,255
 20018f8:	1080010c 	andi	r2,r2,4
 20018fc:	10001626 	beq	r2,zero,2001958 <http_process_request+0x244>
 2001900:	e0bffd17 	ldw	r2,-12(fp)
 2001904:	10800184 	addi	r2,r2,6
 2001908:	10800003 	ldbu	r2,0(r2)
 200190c:	10803fcc 	andi	r2,r2,255
 2001910:	1080201c 	xori	r2,r2,128
 2001914:	10bfe004 	addi	r2,r2,-128
 2001918:	10800b98 	cmpnei	r2,r2,46
 200191c:	10000e1e 	bne	r2,zero,2001958 <http_process_request+0x244>
 2001920:	00808174 	movhi	r2,517
 2001924:	10903404 	addi	r2,r2,16592
 2001928:	10c00017 	ldw	r3,0(r2)
 200192c:	e0bffd17 	ldw	r2,-12(fp)
 2001930:	108001c4 	addi	r2,r2,7
 2001934:	10800003 	ldbu	r2,0(r2)
 2001938:	10803fcc 	andi	r2,r2,255
 200193c:	1080201c 	xori	r2,r2,128
 2001940:	10bfe004 	addi	r2,r2,-128
 2001944:	1885883a 	add	r2,r3,r2
 2001948:	10800003 	ldbu	r2,0(r2)
 200194c:	10803fcc 	andi	r2,r2,255
 2001950:	1080010c 	andi	r2,r2,4
 2001954:	1000021e 	bne	r2,zero,2001960 <http_process_request+0x24c>
  {
    return -1;
 2001958:	00bfffc4 	movi	r2,-1
 200195c:	00001b06 	br	20019cc <http_process_request+0x2b8>
  }

  /* Before v1.1 we close the connection after responding to the request */
  if ( (((version[5] - '0')*10) + version[7] - '0') < 11)
 2001960:	e0bffd17 	ldw	r2,-12(fp)
 2001964:	10800144 	addi	r2,r2,5
 2001968:	10800003 	ldbu	r2,0(r2)
 200196c:	10803fcc 	andi	r2,r2,255
 2001970:	1080201c 	xori	r2,r2,128
 2001974:	10bfe004 	addi	r2,r2,-128
 2001978:	108002a4 	muli	r2,r2,10
 200197c:	10ff8804 	addi	r3,r2,-480
 2001980:	e0bffd17 	ldw	r2,-12(fp)
 2001984:	108001c4 	addi	r2,r2,7
 2001988:	10800003 	ldbu	r2,0(r2)
 200198c:	10803fcc 	andi	r2,r2,255
 2001990:	1080201c 	xori	r2,r2,128
 2001994:	10bfe004 	addi	r2,r2,-128
 2001998:	1885883a 	add	r2,r3,r2
 200199c:	10bff404 	addi	r2,r2,-48
 20019a0:	108002c8 	cmpgei	r2,r2,11
 20019a4:	1000031e 	bne	r2,zero,20019b4 <http_process_request+0x2a0>
  {
    conn->close = 1;
 20019a8:	e0bfff17 	ldw	r2,-4(fp)
 20019ac:	00c00044 	movi	r3,1
 20019b0:	10c00415 	stw	r3,16(r2)
  }

  strcpy(conn->uri, uri);
 20019b4:	e0bfff17 	ldw	r2,-4(fp)
 20019b8:	10807604 	addi	r2,r2,472
 20019bc:	1009883a 	mov	r4,r2
 20019c0:	e17ffc17 	ldw	r5,-16(fp)
 20019c4:	200756c0 	call	200756c <strcpy>
  return 0;
 20019c8:	0005883a 	mov	r2,zero
}
 20019cc:	e037883a 	mov	sp,fp
 20019d0:	dfc00117 	ldw	ra,4(sp)
 20019d4:	df000017 	ldw	fp,0(sp)
 20019d8:	dec00204 	addi	sp,sp,8
 20019dc:	f800283a 	ret

020019e0 <http_send_file_chunk>:
 * repeatedly until the file is completely sent, at which time the connection
 * state will go to "COMPLETE". Doing this rather than sending the entire
 * file allows us (in part) to multiplex between connections "simultaneously".
 */
int http_send_file_chunk(http_conn* conn)
{
 20019e0:	defff804 	addi	sp,sp,-32
 20019e4:	dfc00715 	stw	ra,28(sp)
 20019e8:	df000615 	stw	fp,24(sp)
 20019ec:	df000604 	addi	fp,sp,24
 20019f0:	e13fff15 	stw	r4,-4(fp)
  int chunk_sent = 0, ret_code = 0, file_chunk_size = 0, result = 0;
 20019f4:	e03ffa15 	stw	zero,-24(fp)
 20019f8:	e03ffd15 	stw	zero,-12(fp)
 20019fc:	e03ffb15 	stw	zero,-20(fp)
 2001a00:	e03ffe15 	stw	zero,-8(fp)
  char* tx_ptr;
  
  if(conn->data_sent < conn->file_length)
 2001a04:	e0bfff17 	ldw	r2,-4(fp)
 2001a08:	10c00917 	ldw	r3,36(r2)
 2001a0c:	e0bfff17 	ldw	r2,-4(fp)
 2001a10:	10800817 	ldw	r2,32(r2)
 2001a14:	1880490e 	bge	r3,r2,2001b3c <http_send_file_chunk+0x15c>
  {
    file_chunk_size = fread(conn->tx_buffer, 1, 
 2001a18:	e0bfff17 	ldw	r2,-4(fp)
 2001a1c:	11001217 	ldw	r4,72(r2)
      MIN(HTTP_TX_BUF_SIZE, (conn->file_length - conn->data_sent)), 
 2001a20:	e0bfff17 	ldw	r2,-4(fp)
 2001a24:	10c00817 	ldw	r3,32(r2)
 2001a28:	e0bfff17 	ldw	r2,-4(fp)
 2001a2c:	10800917 	ldw	r2,36(r2)
 2001a30:	1885c83a 	sub	r2,r3,r2
 2001a34:	10c80050 	cmplti	r3,r2,8193
 2001a38:	1800011e 	bne	r3,zero,2001a40 <http_send_file_chunk+0x60>
 2001a3c:	00880004 	movi	r2,8192
  int chunk_sent = 0, ret_code = 0, file_chunk_size = 0, result = 0;
  char* tx_ptr;
  
  if(conn->data_sent < conn->file_length)
  {
    file_chunk_size = fread(conn->tx_buffer, 1, 
 2001a40:	1007883a 	mov	r3,r2
      MIN(HTTP_TX_BUF_SIZE, (conn->file_length - conn->data_sent)), 
      conn->file_handle);
 2001a44:	e0bfff17 	ldw	r2,-4(fp)
  int chunk_sent = 0, ret_code = 0, file_chunk_size = 0, result = 0;
  char* tx_ptr;
  
  if(conn->data_sent < conn->file_length)
  {
    file_chunk_size = fread(conn->tx_buffer, 1, 
 2001a48:	10800b17 	ldw	r2,44(r2)
 2001a4c:	01400044 	movi	r5,1
 2001a50:	180d883a 	mov	r6,r3
 2001a54:	100f883a 	mov	r7,r2
 2001a58:	2004f380 	call	2004f38 <fread>
 2001a5c:	e0bffb15 	stw	r2,-20(fp)
      MIN(HTTP_TX_BUF_SIZE, (conn->file_length - conn->data_sent)), 
      conn->file_handle);
    
    tx_ptr = conn->tx_buffer;
 2001a60:	e0bfff17 	ldw	r2,-4(fp)
 2001a64:	10801217 	ldw	r2,72(r2)
 2001a68:	e0bffc15 	stw	r2,-16(fp)
    
    while(chunk_sent < file_chunk_size)
 2001a6c:	00003006 	br	2001b30 <http_send_file_chunk+0x150>
    {
      result = send(conn->fd, tx_ptr, file_chunk_size, 0);
 2001a70:	e0bfff17 	ldw	r2,-4(fp)
 2001a74:	10800317 	ldw	r2,12(r2)
 2001a78:	1009883a 	mov	r4,r2
 2001a7c:	e17ffc17 	ldw	r5,-16(fp)
 2001a80:	e1bffb17 	ldw	r6,-20(fp)
 2001a84:	000f883a 	mov	r7,zero
 2001a88:	202c5d80 	call	202c5d8 <t_send>
 2001a8c:	e0bffe15 	stw	r2,-8(fp)
      
      /* Error - get out of here! */
      if(result < 0)
 2001a90:	e0bffe17 	ldw	r2,-8(fp)
 2001a94:	10000e0e 	bge	r2,zero,2001ad0 <http_send_file_chunk+0xf0>
      {
        fprintf(stderr, "[http_send_file] file send returned %d\n", result);
 2001a98:	00808174 	movhi	r2,517
 2001a9c:	10903604 	addi	r2,r2,16600
 2001aa0:	10800017 	ldw	r2,0(r2)
 2001aa4:	10800317 	ldw	r2,12(r2)
 2001aa8:	1009883a 	mov	r4,r2
 2001aac:	01408174 	movhi	r5,517
 2001ab0:	2972f704 	addi	r5,r5,-13348
 2001ab4:	e1bffe17 	ldw	r6,-8(fp)
 2001ab8:	2004ce80 	call	2004ce8 <fprintf>
        ALT_DEBUG_ASSERT(1);
        conn->state = RESET;
 2001abc:	e0bfff17 	ldw	r2,-4(fp)
 2001ac0:	00c00104 	movi	r3,4
 2001ac4:	10c00015 	stw	r3,0(r2)
        return result;
 2001ac8:	e0bffe17 	ldw	r2,-8(fp)
 2001acc:	00002406 	br	2001b60 <http_send_file_chunk+0x180>
 2001ad0:	00808174 	movhi	r2,517
 2001ad4:	10909604 	addi	r2,r2,16984
 2001ad8:	10800017 	ldw	r2,0(r2)
      /*
       * No errors, but the number of bytes sent might be less than we wanted.
       */
      else
      {
        conn->activity_time = alt_nticks();
 2001adc:	1007883a 	mov	r3,r2
 2001ae0:	e0bfff17 	ldw	r2,-4(fp)
 2001ae4:	10c00c15 	stw	r3,48(r2)
        chunk_sent += result;
 2001ae8:	e0fffa17 	ldw	r3,-24(fp)
 2001aec:	e0bffe17 	ldw	r2,-8(fp)
 2001af0:	1885883a 	add	r2,r3,r2
 2001af4:	e0bffa15 	stw	r2,-24(fp)
        conn->data_sent += result;
 2001af8:	e0bfff17 	ldw	r2,-4(fp)
 2001afc:	10c00917 	ldw	r3,36(r2)
 2001b00:	e0bffe17 	ldw	r2,-8(fp)
 2001b04:	1887883a 	add	r3,r3,r2
 2001b08:	e0bfff17 	ldw	r2,-4(fp)
 2001b0c:	10c00915 	stw	r3,36(r2)
        tx_ptr += result;
 2001b10:	e0bffe17 	ldw	r2,-8(fp)
 2001b14:	e0fffc17 	ldw	r3,-16(fp)
 2001b18:	1885883a 	add	r2,r3,r2
 2001b1c:	e0bffc15 	stw	r2,-16(fp)
        file_chunk_size -= result;
 2001b20:	e0fffb17 	ldw	r3,-20(fp)
 2001b24:	e0bffe17 	ldw	r2,-8(fp)
 2001b28:	1885c83a 	sub	r2,r3,r2
 2001b2c:	e0bffb15 	stw	r2,-20(fp)
      MIN(HTTP_TX_BUF_SIZE, (conn->file_length - conn->data_sent)), 
      conn->file_handle);
    
    tx_ptr = conn->tx_buffer;
    
    while(chunk_sent < file_chunk_size)
 2001b30:	e0fffa17 	ldw	r3,-24(fp)
 2001b34:	e0bffb17 	ldw	r2,-20(fp)
 2001b38:	18bfcd16 	blt	r3,r2,2001a70 <http_send_file_chunk+0x90>
  
  /* 
   * We managed to send all of the file contents to the IP stack successfully.
   * At this point we can mark our connection info as complete.
   */
  if(conn->data_sent >= conn->file_length)
 2001b3c:	e0bfff17 	ldw	r2,-4(fp)
 2001b40:	10c00917 	ldw	r3,36(r2)
 2001b44:	e0bfff17 	ldw	r2,-4(fp)
 2001b48:	10800817 	ldw	r2,32(r2)
 2001b4c:	18800316 	blt	r3,r2,2001b5c <http_send_file_chunk+0x17c>
  {
    conn->state = COMPLETE;
 2001b50:	e0bfff17 	ldw	r2,-4(fp)
 2001b54:	00c000c4 	movi	r3,3
 2001b58:	10c00015 	stw	r3,0(r2)
  }

  return ret_code;
 2001b5c:	e0bffd17 	ldw	r2,-12(fp)
}
 2001b60:	e037883a 	mov	sp,fp
 2001b64:	dfc00117 	ldw	ra,4(sp)
 2001b68:	df000017 	ldw	fp,0(sp)
 2001b6c:	dec00204 	addi	sp,sp,8
 2001b70:	f800283a 	ret

02001b74 <http_send_file_header>:
 *
 * Construct and send an HTTP header describing the now-opened file that is
 * about to be sent to the client.
 */
int http_send_file_header(http_conn* conn, const char* name, int code)
{
 2001b74:	defff504 	addi	sp,sp,-44
 2001b78:	dfc00a15 	stw	ra,40(sp)
 2001b7c:	df000915 	stw	fp,36(sp)
 2001b80:	df000904 	addi	fp,sp,36
 2001b84:	e13ffd15 	stw	r4,-12(fp)
 2001b88:	e17ffe15 	stw	r5,-8(fp)
 2001b8c:	e1bfff15 	stw	r6,-4(fp)
  int     result = 0, ret_code = 0;
 2001b90:	e03ff815 	stw	zero,-32(fp)
 2001b94:	e03ff915 	stw	zero,-28(fp)
  char* tx_wr_pos = conn->tx_buffer;
 2001b98:	e0bffd17 	ldw	r2,-12(fp)
 2001b9c:	10801217 	ldw	r2,72(r2)
 2001ba0:	e0bff715 	stw	r2,-36(fp)
  fpos_t  end, start;
  const char* ext = strchr(name, '.');
 2001ba4:	e13ffe17 	ldw	r4,-8(fp)
 2001ba8:	01400b84 	movi	r5,46
 2001bac:	20073e00 	call	20073e0 <strchr>
 2001bb0:	e0bffa15 	stw	r2,-24(fp)

  tx_wr_pos += sprintf(tx_wr_pos, HTTP_VERSION_STRING);
 2001bb4:	e0bff717 	ldw	r2,-36(fp)
 2001bb8:	00c01204 	movi	r3,72
 2001bbc:	10c00005 	stb	r3,0(r2)
 2001bc0:	00c01504 	movi	r3,84
 2001bc4:	10c00045 	stb	r3,1(r2)
 2001bc8:	00c01504 	movi	r3,84
 2001bcc:	10c00085 	stb	r3,2(r2)
 2001bd0:	00c01404 	movi	r3,80
 2001bd4:	10c000c5 	stb	r3,3(r2)
 2001bd8:	00c00bc4 	movi	r3,47
 2001bdc:	10c00105 	stb	r3,4(r2)
 2001be0:	00c00c44 	movi	r3,49
 2001be4:	10c00145 	stb	r3,5(r2)
 2001be8:	00c00b84 	movi	r3,46
 2001bec:	10c00185 	stb	r3,6(r2)
 2001bf0:	00c00c44 	movi	r3,49
 2001bf4:	10c001c5 	stb	r3,7(r2)
 2001bf8:	00c00804 	movi	r3,32
 2001bfc:	10c00205 	stb	r3,8(r2)
 2001c00:	10000245 	stb	zero,9(r2)
 2001c04:	e0bff717 	ldw	r2,-36(fp)
 2001c08:	10800244 	addi	r2,r2,9
 2001c0c:	e0bff715 	stw	r2,-36(fp)

  switch(code)
 2001c10:	e0bfff17 	ldw	r2,-4(fp)
 2001c14:	10c03220 	cmpeqi	r3,r2,200
 2001c18:	1800031e 	bne	r3,zero,2001c28 <http_send_file_header+0xb4>
 2001c1c:	10806520 	cmpeqi	r2,r2,404
 2001c20:	1000171e 	bne	r2,zero,2001c80 <http_send_file_header+0x10c>
 2001c24:	00002306 	br	2001cb4 <http_send_file_header+0x140>
  {
    /* HTTP Code: "200 OK\r\n" (we have opened the file successfully) */
    case HTTP_OK:
    {
      tx_wr_pos += sprintf(tx_wr_pos, HTTP_OK_STRING);
 2001c28:	e0bff717 	ldw	r2,-36(fp)
 2001c2c:	00c00c84 	movi	r3,50
 2001c30:	10c00005 	stb	r3,0(r2)
 2001c34:	00c00c04 	movi	r3,48
 2001c38:	10c00045 	stb	r3,1(r2)
 2001c3c:	00c00c04 	movi	r3,48
 2001c40:	10c00085 	stb	r3,2(r2)
 2001c44:	00c00804 	movi	r3,32
 2001c48:	10c000c5 	stb	r3,3(r2)
 2001c4c:	00c013c4 	movi	r3,79
 2001c50:	10c00105 	stb	r3,4(r2)
 2001c54:	00c012c4 	movi	r3,75
 2001c58:	10c00145 	stb	r3,5(r2)
 2001c5c:	00c00344 	movi	r3,13
 2001c60:	10c00185 	stb	r3,6(r2)
 2001c64:	00c00284 	movi	r3,10
 2001c68:	10c001c5 	stb	r3,7(r2)
 2001c6c:	10000205 	stb	zero,8(r2)
 2001c70:	e0bff717 	ldw	r2,-36(fp)
 2001c74:	10800204 	addi	r2,r2,8
 2001c78:	e0bff715 	stw	r2,-36(fp)
      break;
 2001c7c:	00001b06 	br	2001cec <http_send_file_header+0x178>
    }
    /* HTTP Code: "404 Not Found\r\n" (couldn't find requested file) */
    case HTTP_NOT_FOUND:
    {
      tx_wr_pos += sprintf(tx_wr_pos, HTTP_NOT_FOUND_STRING);
 2001c80:	e0fff717 	ldw	r3,-36(fp)
 2001c84:	00808174 	movhi	r2,517
 2001c88:	10b30104 	addi	r2,r2,-13308
 2001c8c:	1809883a 	mov	r4,r3
 2001c90:	1007883a 	mov	r3,r2
 2001c94:	00800404 	movi	r2,16
 2001c98:	180b883a 	mov	r5,r3
 2001c9c:	100d883a 	mov	r6,r2
 2001ca0:	200660c0 	call	200660c <memcpy>
 2001ca4:	e0bff717 	ldw	r2,-36(fp)
 2001ca8:	108003c4 	addi	r2,r2,15
 2001cac:	e0bff715 	stw	r2,-36(fp)
      break;
 2001cb0:	00000e06 	br	2001cec <http_send_file_header+0x178>
    }
    default:
    {
      fprintf(stderr, "[http_send_file_header] Invalid HTTP code: %d\n", code);
 2001cb4:	00808174 	movhi	r2,517
 2001cb8:	10903604 	addi	r2,r2,16600
 2001cbc:	10800017 	ldw	r2,0(r2)
 2001cc0:	10800317 	ldw	r2,12(r2)
 2001cc4:	1009883a 	mov	r4,r2
 2001cc8:	01408174 	movhi	r5,517
 2001ccc:	29730504 	addi	r5,r5,-13292
 2001cd0:	e1bfff17 	ldw	r6,-4(fp)
 2001cd4:	2004ce80 	call	2004ce8 <fprintf>
      conn->state = RESET;
 2001cd8:	e0bffd17 	ldw	r2,-12(fp)
 2001cdc:	00c00104 	movi	r3,4
 2001ce0:	10c00015 	stw	r3,0(r2)
      return -1;
 2001ce4:	00bfffc4 	movi	r2,-1
 2001ce8:	00017506 	br	20022c0 <http_send_file_header+0x74c>
      break;
    }
  }

  /* Handle the various content types */
  tx_wr_pos += sprintf(tx_wr_pos, HTTP_CONTENT_TYPE);
 2001cec:	e0fff717 	ldw	r3,-36(fp)
 2001cf0:	00808174 	movhi	r2,517
 2001cf4:	10b31104 	addi	r2,r2,-13244
 2001cf8:	1809883a 	mov	r4,r3
 2001cfc:	1007883a 	mov	r3,r2
 2001d00:	008003c4 	movi	r2,15
 2001d04:	180b883a 	mov	r5,r3
 2001d08:	100d883a 	mov	r6,r2
 2001d0c:	200660c0 	call	200660c <memcpy>
 2001d10:	e0bff717 	ldw	r2,-36(fp)
 2001d14:	10800384 	addi	r2,r2,14
 2001d18:	e0bff715 	stw	r2,-36(fp)

  if (!strcasecmp(ext, ".html"))
 2001d1c:	e13ffa17 	ldw	r4,-24(fp)
 2001d20:	01408174 	movhi	r5,517
 2001d24:	29731504 	addi	r5,r5,-13228
 2001d28:	20072940 	call	2007294 <strcasecmp>
 2001d2c:	10001c1e 	bne	r2,zero,2001da0 <http_send_file_header+0x22c>
  {
    tx_wr_pos += sprintf(tx_wr_pos, HTTP_CONTENT_TYPE_HTML);
 2001d30:	e0bff717 	ldw	r2,-36(fp)
 2001d34:	00c01d04 	movi	r3,116
 2001d38:	10c00005 	stb	r3,0(r2)
 2001d3c:	00c01944 	movi	r3,101
 2001d40:	10c00045 	stb	r3,1(r2)
 2001d44:	00c01e04 	movi	r3,120
 2001d48:	10c00085 	stb	r3,2(r2)
 2001d4c:	00c01d04 	movi	r3,116
 2001d50:	10c000c5 	stb	r3,3(r2)
 2001d54:	00c00bc4 	movi	r3,47
 2001d58:	10c00105 	stb	r3,4(r2)
 2001d5c:	00c01a04 	movi	r3,104
 2001d60:	10c00145 	stb	r3,5(r2)
 2001d64:	00c01d04 	movi	r3,116
 2001d68:	10c00185 	stb	r3,6(r2)
 2001d6c:	00c01b44 	movi	r3,109
 2001d70:	10c001c5 	stb	r3,7(r2)
 2001d74:	00c01b04 	movi	r3,108
 2001d78:	10c00205 	stb	r3,8(r2)
 2001d7c:	00c00344 	movi	r3,13
 2001d80:	10c00245 	stb	r3,9(r2)
 2001d84:	00c00284 	movi	r3,10
 2001d88:	10c00285 	stb	r3,10(r2)
 2001d8c:	100002c5 	stb	zero,11(r2)
 2001d90:	e0bff717 	ldw	r2,-36(fp)
 2001d94:	108002c4 	addi	r2,r2,11
 2001d98:	e0bff715 	stw	r2,-36(fp)
 2001d9c:	0000c606 	br	20020b8 <http_send_file_header+0x544>
  }
  else if (!strcasecmp(ext, ".jpg"))
 2001da0:	e13ffa17 	ldw	r4,-24(fp)
 2001da4:	01408174 	movhi	r5,517
 2001da8:	29731704 	addi	r5,r5,-13220
 2001dac:	20072940 	call	2007294 <strcasecmp>
 2001db0:	10001c1e 	bne	r2,zero,2001e24 <http_send_file_header+0x2b0>
  {
    tx_wr_pos += sprintf(tx_wr_pos, HTTP_CONTENT_TYPE_JPG);
 2001db4:	e0bff717 	ldw	r2,-36(fp)
 2001db8:	00c01a44 	movi	r3,105
 2001dbc:	10c00005 	stb	r3,0(r2)
 2001dc0:	00c01b44 	movi	r3,109
 2001dc4:	10c00045 	stb	r3,1(r2)
 2001dc8:	00c01844 	movi	r3,97
 2001dcc:	10c00085 	stb	r3,2(r2)
 2001dd0:	00c019c4 	movi	r3,103
 2001dd4:	10c000c5 	stb	r3,3(r2)
 2001dd8:	00c01944 	movi	r3,101
 2001ddc:	10c00105 	stb	r3,4(r2)
 2001de0:	00c00bc4 	movi	r3,47
 2001de4:	10c00145 	stb	r3,5(r2)
 2001de8:	00c01a84 	movi	r3,106
 2001dec:	10c00185 	stb	r3,6(r2)
 2001df0:	00c01c04 	movi	r3,112
 2001df4:	10c001c5 	stb	r3,7(r2)
 2001df8:	00c019c4 	movi	r3,103
 2001dfc:	10c00205 	stb	r3,8(r2)
 2001e00:	00c00344 	movi	r3,13
 2001e04:	10c00245 	stb	r3,9(r2)
 2001e08:	00c00284 	movi	r3,10
 2001e0c:	10c00285 	stb	r3,10(r2)
 2001e10:	100002c5 	stb	zero,11(r2)
 2001e14:	e0bff717 	ldw	r2,-36(fp)
 2001e18:	108002c4 	addi	r2,r2,11
 2001e1c:	e0bff715 	stw	r2,-36(fp)
 2001e20:	0000a506 	br	20020b8 <http_send_file_header+0x544>
  }
  else if (!strcasecmp(ext, ".gif"))
 2001e24:	e13ffa17 	ldw	r4,-24(fp)
 2001e28:	01408174 	movhi	r5,517
 2001e2c:	29731904 	addi	r5,r5,-13212
 2001e30:	20072940 	call	2007294 <strcasecmp>
 2001e34:	10001c1e 	bne	r2,zero,2001ea8 <http_send_file_header+0x334>
  {
    tx_wr_pos += sprintf(tx_wr_pos, HTTP_CONTENT_TYPE_GIF);
 2001e38:	e0bff717 	ldw	r2,-36(fp)
 2001e3c:	00c01a44 	movi	r3,105
 2001e40:	10c00005 	stb	r3,0(r2)
 2001e44:	00c01b44 	movi	r3,109
 2001e48:	10c00045 	stb	r3,1(r2)
 2001e4c:	00c01844 	movi	r3,97
 2001e50:	10c00085 	stb	r3,2(r2)
 2001e54:	00c019c4 	movi	r3,103
 2001e58:	10c000c5 	stb	r3,3(r2)
 2001e5c:	00c01944 	movi	r3,101
 2001e60:	10c00105 	stb	r3,4(r2)
 2001e64:	00c00bc4 	movi	r3,47
 2001e68:	10c00145 	stb	r3,5(r2)
 2001e6c:	00c019c4 	movi	r3,103
 2001e70:	10c00185 	stb	r3,6(r2)
 2001e74:	00c01a44 	movi	r3,105
 2001e78:	10c001c5 	stb	r3,7(r2)
 2001e7c:	00c01984 	movi	r3,102
 2001e80:	10c00205 	stb	r3,8(r2)
 2001e84:	00c00344 	movi	r3,13
 2001e88:	10c00245 	stb	r3,9(r2)
 2001e8c:	00c00284 	movi	r3,10
 2001e90:	10c00285 	stb	r3,10(r2)
 2001e94:	100002c5 	stb	zero,11(r2)
 2001e98:	e0bff717 	ldw	r2,-36(fp)
 2001e9c:	108002c4 	addi	r2,r2,11
 2001ea0:	e0bff715 	stw	r2,-36(fp)
 2001ea4:	00008406 	br	20020b8 <http_send_file_header+0x544>
  }
  else if (!strcasecmp(ext, ".png"))
 2001ea8:	e13ffa17 	ldw	r4,-24(fp)
 2001eac:	01408174 	movhi	r5,517
 2001eb0:	29731b04 	addi	r5,r5,-13204
 2001eb4:	20072940 	call	2007294 <strcasecmp>
 2001eb8:	10001c1e 	bne	r2,zero,2001f2c <http_send_file_header+0x3b8>
  {
    tx_wr_pos += sprintf(tx_wr_pos, HTTP_CONTENT_TYPE_PNG);
 2001ebc:	e0bff717 	ldw	r2,-36(fp)
 2001ec0:	00c01a44 	movi	r3,105
 2001ec4:	10c00005 	stb	r3,0(r2)
 2001ec8:	00c01b44 	movi	r3,109
 2001ecc:	10c00045 	stb	r3,1(r2)
 2001ed0:	00c01844 	movi	r3,97
 2001ed4:	10c00085 	stb	r3,2(r2)
 2001ed8:	00c019c4 	movi	r3,103
 2001edc:	10c000c5 	stb	r3,3(r2)
 2001ee0:	00c01944 	movi	r3,101
 2001ee4:	10c00105 	stb	r3,4(r2)
 2001ee8:	00c00bc4 	movi	r3,47
 2001eec:	10c00145 	stb	r3,5(r2)
 2001ef0:	00c01c04 	movi	r3,112
 2001ef4:	10c00185 	stb	r3,6(r2)
 2001ef8:	00c01b84 	movi	r3,110
 2001efc:	10c001c5 	stb	r3,7(r2)
 2001f00:	00c019c4 	movi	r3,103
 2001f04:	10c00205 	stb	r3,8(r2)
 2001f08:	00c00344 	movi	r3,13
 2001f0c:	10c00245 	stb	r3,9(r2)
 2001f10:	00c00284 	movi	r3,10
 2001f14:	10c00285 	stb	r3,10(r2)
 2001f18:	100002c5 	stb	zero,11(r2)
 2001f1c:	e0bff717 	ldw	r2,-36(fp)
 2001f20:	108002c4 	addi	r2,r2,11
 2001f24:	e0bff715 	stw	r2,-36(fp)
 2001f28:	00006306 	br	20020b8 <http_send_file_header+0x544>
  }
  else if (!strcasecmp(ext, ".js"))
 2001f2c:	e13ffa17 	ldw	r4,-24(fp)
 2001f30:	01408174 	movhi	r5,517
 2001f34:	29731d04 	addi	r5,r5,-13196
 2001f38:	20072940 	call	2007294 <strcasecmp>
 2001f3c:	10000d1e 	bne	r2,zero,2001f74 <http_send_file_header+0x400>
  {
    tx_wr_pos += sprintf(tx_wr_pos, HTTP_CONTENT_TYPE_JS);
 2001f40:	e0fff717 	ldw	r3,-36(fp)
 2001f44:	00808174 	movhi	r2,517
 2001f48:	10b31e04 	addi	r2,r2,-13192
 2001f4c:	1809883a 	mov	r4,r3
 2001f50:	1007883a 	mov	r3,r2
 2001f54:	008006c4 	movi	r2,27
 2001f58:	180b883a 	mov	r5,r3
 2001f5c:	100d883a 	mov	r6,r2
 2001f60:	200660c0 	call	200660c <memcpy>
 2001f64:	e0bff717 	ldw	r2,-36(fp)
 2001f68:	10800684 	addi	r2,r2,26
 2001f6c:	e0bff715 	stw	r2,-36(fp)
 2001f70:	00005106 	br	20020b8 <http_send_file_header+0x544>
  }
  else if (!strcasecmp(ext, ".css"))
 2001f74:	e13ffa17 	ldw	r4,-24(fp)
 2001f78:	01408174 	movhi	r5,517
 2001f7c:	29732504 	addi	r5,r5,-13164
 2001f80:	20072940 	call	2007294 <strcasecmp>
 2001f84:	10001a1e 	bne	r2,zero,2001ff0 <http_send_file_header+0x47c>
  {
    tx_wr_pos += sprintf(tx_wr_pos, HTTP_CONTENT_TYPE_CSS);
 2001f88:	e0bff717 	ldw	r2,-36(fp)
 2001f8c:	00c01d04 	movi	r3,116
 2001f90:	10c00005 	stb	r3,0(r2)
 2001f94:	00c01944 	movi	r3,101
 2001f98:	10c00045 	stb	r3,1(r2)
 2001f9c:	00c01e04 	movi	r3,120
 2001fa0:	10c00085 	stb	r3,2(r2)
 2001fa4:	00c01d04 	movi	r3,116
 2001fa8:	10c000c5 	stb	r3,3(r2)
 2001fac:	00c00bc4 	movi	r3,47
 2001fb0:	10c00105 	stb	r3,4(r2)
 2001fb4:	00c018c4 	movi	r3,99
 2001fb8:	10c00145 	stb	r3,5(r2)
 2001fbc:	00c01cc4 	movi	r3,115
 2001fc0:	10c00185 	stb	r3,6(r2)
 2001fc4:	00c01cc4 	movi	r3,115
 2001fc8:	10c001c5 	stb	r3,7(r2)
 2001fcc:	00c00344 	movi	r3,13
 2001fd0:	10c00205 	stb	r3,8(r2)
 2001fd4:	00c00284 	movi	r3,10
 2001fd8:	10c00245 	stb	r3,9(r2)
 2001fdc:	10000285 	stb	zero,10(r2)
 2001fe0:	e0bff717 	ldw	r2,-36(fp)
 2001fe4:	10800284 	addi	r2,r2,10
 2001fe8:	e0bff715 	stw	r2,-36(fp)
 2001fec:	00003206 	br	20020b8 <http_send_file_header+0x544>
  }
  else if (!strcasecmp(ext, ".swf"))
 2001ff0:	e13ffa17 	ldw	r4,-24(fp)
 2001ff4:	01408174 	movhi	r5,517
 2001ff8:	29732704 	addi	r5,r5,-13156
 2001ffc:	20072940 	call	2007294 <strcasecmp>
 2002000:	10000d1e 	bne	r2,zero,2002038 <http_send_file_header+0x4c4>
  {
    tx_wr_pos += sprintf(tx_wr_pos, HTTP_CONTENT_TYPE_SWF);
 2002004:	e0fff717 	ldw	r3,-36(fp)
 2002008:	00808174 	movhi	r2,517
 200200c:	10b32904 	addi	r2,r2,-13148
 2002010:	1809883a 	mov	r4,r3
 2002014:	1007883a 	mov	r3,r2
 2002018:	00800804 	movi	r2,32
 200201c:	180b883a 	mov	r5,r3
 2002020:	100d883a 	mov	r6,r2
 2002024:	200660c0 	call	200660c <memcpy>
 2002028:	e0bff717 	ldw	r2,-36(fp)
 200202c:	108007c4 	addi	r2,r2,31
 2002030:	e0bff715 	stw	r2,-36(fp)
 2002034:	00002006 	br	20020b8 <http_send_file_header+0x544>
  }
  else if (!strcasecmp(ext, ".ico"))
 2002038:	e13ffa17 	ldw	r4,-24(fp)
 200203c:	01408174 	movhi	r5,517
 2002040:	29733104 	addi	r5,r5,-13116
 2002044:	20072940 	call	2007294 <strcasecmp>
 2002048:	10000d1e 	bne	r2,zero,2002080 <http_send_file_header+0x50c>
  {
    tx_wr_pos += sprintf(tx_wr_pos, HTTP_CONTENT_TYPE_ICO);
 200204c:	e0fff717 	ldw	r3,-36(fp)
 2002050:	00808174 	movhi	r2,517
 2002054:	10b33304 	addi	r2,r2,-13108
 2002058:	1809883a 	mov	r4,r3
 200205c:	1007883a 	mov	r3,r2
 2002060:	008006c4 	movi	r2,27
 2002064:	180b883a 	mov	r5,r3
 2002068:	100d883a 	mov	r6,r2
 200206c:	200660c0 	call	200660c <memcpy>
 2002070:	e0bff717 	ldw	r2,-36(fp)
 2002074:	10800684 	addi	r2,r2,26
 2002078:	e0bff715 	stw	r2,-36(fp)
 200207c:	00000e06 	br	20020b8 <http_send_file_header+0x544>
  }
  else
  {
    fprintf(stderr, "[http_send_file] Unknown content type: \"%s\"\n", ext);
 2002080:	00808174 	movhi	r2,517
 2002084:	10903604 	addi	r2,r2,16600
 2002088:	10800017 	ldw	r2,0(r2)
 200208c:	10800317 	ldw	r2,12(r2)
 2002090:	1009883a 	mov	r4,r2
 2002094:	01408174 	movhi	r5,517
 2002098:	29733a04 	addi	r5,r5,-13080
 200209c:	e1bffa17 	ldw	r6,-24(fp)
 20020a0:	2004ce80 	call	2004ce8 <fprintf>
    conn->state = RESET;
 20020a4:	e0bffd17 	ldw	r2,-12(fp)
 20020a8:	00c00104 	movi	r3,4
 20020ac:	10c00015 	stw	r3,0(r2)
    ALT_DEBUG_ASSERT(1);
    return -1;
 20020b0:	00bfffc4 	movi	r2,-1
 20020b4:	00008206 	br	20022c0 <http_send_file_header+0x74c>
  }

  /* Get the file length and stash it into our connection info */
  fseek(conn->file_handle, 0, SEEK_END);
 20020b8:	e0bffd17 	ldw	r2,-12(fp)
 20020bc:	10800b17 	ldw	r2,44(r2)
 20020c0:	1009883a 	mov	r4,r2
 20020c4:	000b883a 	mov	r5,zero
 20020c8:	01800084 	movi	r6,2
 20020cc:	20057f80 	call	20057f8 <fseek>
  fgetpos(conn->file_handle, &end);
 20020d0:	e0bffd17 	ldw	r2,-12(fp)
 20020d4:	10c00b17 	ldw	r3,44(r2)
 20020d8:	e0bffb04 	addi	r2,fp,-20
 20020dc:	1809883a 	mov	r4,r3
 20020e0:	100b883a 	mov	r5,r2
 20020e4:	20048800 	call	2004880 <fgetpos>
  fseek(conn->file_handle, 0, SEEK_SET);
 20020e8:	e0bffd17 	ldw	r2,-12(fp)
 20020ec:	10800b17 	ldw	r2,44(r2)
 20020f0:	1009883a 	mov	r4,r2
 20020f4:	000b883a 	mov	r5,zero
 20020f8:	000d883a 	mov	r6,zero
 20020fc:	20057f80 	call	20057f8 <fseek>
  fgetpos(conn->file_handle, &start);
 2002100:	e0bffd17 	ldw	r2,-12(fp)
 2002104:	10c00b17 	ldw	r3,44(r2)
 2002108:	e0bffc04 	addi	r2,fp,-16
 200210c:	1809883a 	mov	r4,r3
 2002110:	100b883a 	mov	r5,r2
 2002114:	20048800 	call	2004880 <fgetpos>
  conn->file_length = end - start;
 2002118:	e0fffb17 	ldw	r3,-20(fp)
 200211c:	e0bffc17 	ldw	r2,-16(fp)
 2002120:	1887c83a 	sub	r3,r3,r2
 2002124:	e0bffd17 	ldw	r2,-12(fp)
 2002128:	10c00815 	stw	r3,32(r2)

  /* "Content-Length: <length bytes>\r\n" */
  tx_wr_pos += sprintf(tx_wr_pos, HTTP_CONTENT_LENGTH);
 200212c:	e0fff717 	ldw	r3,-36(fp)
 2002130:	00808174 	movhi	r2,517
 2002134:	10b34604 	addi	r2,r2,-13032
 2002138:	1809883a 	mov	r4,r3
 200213c:	1007883a 	mov	r3,r2
 2002140:	00800444 	movi	r2,17
 2002144:	180b883a 	mov	r5,r3
 2002148:	100d883a 	mov	r6,r2
 200214c:	200660c0 	call	200660c <memcpy>
 2002150:	e0bff717 	ldw	r2,-36(fp)
 2002154:	10800404 	addi	r2,r2,16
 2002158:	e0bff715 	stw	r2,-36(fp)
  tx_wr_pos += sprintf(tx_wr_pos, "%d\r\n", conn->file_length);
 200215c:	e0bffd17 	ldw	r2,-12(fp)
 2002160:	10800817 	ldw	r2,32(r2)
 2002164:	e13ff717 	ldw	r4,-36(fp)
 2002168:	01408174 	movhi	r5,517
 200216c:	29734b04 	addi	r5,r5,-13012
 2002170:	100d883a 	mov	r6,r2
 2002174:	2006fec0 	call	2006fec <sprintf>
 2002178:	e0fff717 	ldw	r3,-36(fp)
 200217c:	1885883a 	add	r2,r3,r2
 2002180:	e0bff715 	stw	r2,-36(fp)
   * 
   * We send a specified number of files in a single keep-alive connection,
   * we'll also close the connection. It's best to be polite and tell the client,
   * though.
   */
  if(!conn->keep_alive_count)
 2002184:	e0bffd17 	ldw	r2,-12(fp)
 2002188:	10800717 	ldw	r2,28(r2)
 200218c:	1000031e 	bne	r2,zero,200219c <http_send_file_header+0x628>
  {
    conn->close = 1;
 2002190:	e0bffd17 	ldw	r2,-12(fp)
 2002194:	00c00044 	movi	r3,1
 2002198:	10c00415 	stw	r3,16(r2)
  }
  
  if(conn->close)
 200219c:	e0bffd17 	ldw	r2,-12(fp)
 20021a0:	10800417 	ldw	r2,16(r2)
 20021a4:	10000d26 	beq	r2,zero,20021dc <http_send_file_header+0x668>
  {
    tx_wr_pos += sprintf(tx_wr_pos, HTTP_CLOSE);
 20021a8:	e0fff717 	ldw	r3,-36(fp)
 20021ac:	00808174 	movhi	r2,517
 20021b0:	10b34d04 	addi	r2,r2,-13004
 20021b4:	1809883a 	mov	r4,r3
 20021b8:	1007883a 	mov	r3,r2
 20021bc:	00800504 	movi	r2,20
 20021c0:	180b883a 	mov	r5,r3
 20021c4:	100d883a 	mov	r6,r2
 20021c8:	200660c0 	call	200660c <memcpy>
 20021cc:	e0bff717 	ldw	r2,-36(fp)
 20021d0:	108004c4 	addi	r2,r2,19
 20021d4:	e0bff715 	stw	r2,-36(fp)
 20021d8:	00000c06 	br	200220c <http_send_file_header+0x698>
  }
  else
  {
    tx_wr_pos += sprintf(tx_wr_pos, HTTP_KEEP_ALIVE);
 20021dc:	e0fff717 	ldw	r3,-36(fp)
 20021e0:	00808174 	movhi	r2,517
 20021e4:	10b35204 	addi	r2,r2,-12984
 20021e8:	1809883a 	mov	r4,r3
 20021ec:	1007883a 	mov	r3,r2
 20021f0:	00800644 	movi	r2,25
 20021f4:	180b883a 	mov	r5,r3
 20021f8:	100d883a 	mov	r6,r2
 20021fc:	200660c0 	call	200660c <memcpy>
 2002200:	e0bff717 	ldw	r2,-36(fp)
 2002204:	10800604 	addi	r2,r2,24
 2002208:	e0bff715 	stw	r2,-36(fp)
  }

  /* "\r\n" (two \r\n's in a row means end of headers */
  tx_wr_pos += sprintf(tx_wr_pos, HTTP_CR_LF);
 200220c:	e0bff717 	ldw	r2,-36(fp)
 2002210:	00c00344 	movi	r3,13
 2002214:	10c00005 	stb	r3,0(r2)
 2002218:	00c00284 	movi	r3,10
 200221c:	10c00045 	stb	r3,1(r2)
 2002220:	10000085 	stb	zero,2(r2)
 2002224:	e0bff717 	ldw	r2,-36(fp)
 2002228:	10800084 	addi	r2,r2,2
 200222c:	e0bff715 	stw	r2,-36(fp)

  /* Send the reply header */
  result = send(conn->fd, conn->tx_buffer, (tx_wr_pos - conn->tx_buffer), 
 2002230:	e0bffd17 	ldw	r2,-12(fp)
 2002234:	11000317 	ldw	r4,12(r2)
 2002238:	e0bffd17 	ldw	r2,-12(fp)
 200223c:	10c01217 	ldw	r3,72(r2)
 2002240:	e17ff717 	ldw	r5,-36(fp)
 2002244:	e0bffd17 	ldw	r2,-12(fp)
 2002248:	10801217 	ldw	r2,72(r2)
 200224c:	2885c83a 	sub	r2,r5,r2
 2002250:	180b883a 	mov	r5,r3
 2002254:	100d883a 	mov	r6,r2
 2002258:	000f883a 	mov	r7,zero
 200225c:	202c5d80 	call	202c5d8 <t_send>
 2002260:	e0bff815 	stw	r2,-32(fp)
                0);  
                
  if(result < 0)
 2002264:	e0bff817 	ldw	r2,-32(fp)
 2002268:	10000e0e 	bge	r2,zero,20022a4 <http_send_file_header+0x730>
  {
    fprintf(stderr, "[http_send_file] header send returned %d\n", result);
 200226c:	00808174 	movhi	r2,517
 2002270:	10903604 	addi	r2,r2,16600
 2002274:	10800017 	ldw	r2,0(r2)
 2002278:	10800317 	ldw	r2,12(r2)
 200227c:	1009883a 	mov	r4,r2
 2002280:	01408174 	movhi	r5,517
 2002284:	29735904 	addi	r5,r5,-12956
 2002288:	e1bff817 	ldw	r6,-32(fp)
 200228c:	2004ce80 	call	2004ce8 <fprintf>
    conn->state = RESET;
 2002290:	e0bffd17 	ldw	r2,-12(fp)
 2002294:	00c00104 	movi	r3,4
 2002298:	10c00015 	stw	r3,0(r2)
    return result;
 200229c:	e0bff817 	ldw	r2,-32(fp)
 20022a0:	00000706 	br	20022c0 <http_send_file_header+0x74c>
 20022a4:	00808174 	movhi	r2,517
 20022a8:	10909604 	addi	r2,r2,16984
 20022ac:	10800017 	ldw	r2,0(r2)
  }
  else
  {
    conn->activity_time = alt_nticks();
 20022b0:	1007883a 	mov	r3,r2
 20022b4:	e0bffd17 	ldw	r2,-12(fp)
 20022b8:	10c00c15 	stw	r3,48(r2)
  }
  
  return ret_code;
 20022bc:	e0bff917 	ldw	r2,-28(fp)
}
 20022c0:	e037883a 	mov	sp,fp
 20022c4:	dfc00117 	ldw	ra,4(sp)
 20022c8:	df000017 	ldw	fp,0(sp)
 20022cc:	dec00204 	addi	sp,sp,8
 20022d0:	f800283a 	ret

020022d4 <http_find_file>:
 *
 * Try to find the file requested. If nothing is requested you get /index.html
 * If we can't find it, send a "404 - Not found" message.
 */
int http_find_file(http_conn* conn)
{
 20022d4:	deffbc04 	addi	sp,sp,-272
 20022d8:	dfc04315 	stw	ra,268(sp)
 20022dc:	df004215 	stw	fp,264(sp)
 20022e0:	df004204 	addi	fp,sp,264
 20022e4:	e13fff15 	stw	r4,-4(fp)
  char  filename[256];
  int     ret_code = 0;
 20022e8:	e03fbe15 	stw	zero,-264(fp)

  strncpy( filename, ALTERA_RO_ZIPFS_NAME, strlen(ALTERA_RO_ZIPFS_NAME));
 20022ec:	e0bfbf04 	addi	r2,fp,-260
 20022f0:	00dd1bb4 	movhi	r3,29806
 20022f4:	18db4bc4 	addi	r3,r3,27951
 20022f8:	10c00015 	stw	r3,0(r2)
 20022fc:	00de9bf4 	movhi	r3,31343
 2002300:	18dc8bc4 	addi	r3,r3,29231
 2002304:	10c00115 	stw	r3,4(r2)
 2002308:	00dcd9b4 	movhi	r3,29542
 200230c:	18dc1a44 	addi	r3,r3,28777
 2002310:	10c00215 	stw	r3,8(r2)

  /* URI of "/" means get the default, usually index.html */
  if ( (conn->uri[0] == '/') && (conn->uri[1] == '\0') )
 2002314:	e0bfff17 	ldw	r2,-4(fp)
 2002318:	10807603 	ldbu	r2,472(r2)
 200231c:	10803fcc 	andi	r2,r2,255
 2002320:	1080201c 	xori	r2,r2,128
 2002324:	10bfe004 	addi	r2,r2,-128
 2002328:	10800bd8 	cmpnei	r2,r2,47
 200232c:	1000121e 	bne	r2,zero,2002378 <http_find_file+0xa4>
 2002330:	e0bfff17 	ldw	r2,-4(fp)
 2002334:	10807643 	ldbu	r2,473(r2)
 2002338:	10803fcc 	andi	r2,r2,255
 200233c:	1080201c 	xori	r2,r2,128
 2002340:	10bfe004 	addi	r2,r2,-128
 2002344:	10000c1e 	bne	r2,zero,2002378 <http_find_file+0xa4>
  {
    strcpy(filename+strlen(ALTERA_RO_ZIPFS_NAME), HTTP_DEFAULT_FILE);
 2002348:	e0bfbf04 	addi	r2,fp,-260
 200234c:	10800304 	addi	r2,r2,12
 2002350:	00d91bb4 	movhi	r3,25710
 2002354:	18da4bc4 	addi	r3,r3,26927
 2002358:	10c00015 	stw	r3,0(r2)
 200235c:	00da0bb4 	movhi	r3,26670
 2002360:	18de1944 	addi	r3,r3,30821
 2002364:	10c00115 	stw	r3,4(r2)
 2002368:	00c01b34 	movhi	r3,108
 200236c:	18db5d04 	addi	r3,r3,28020
 2002370:	10c00215 	stw	r3,8(r2)
 2002374:	00000706 	br	2002394 <http_find_file+0xc0>
  }
  else
  {
    strcpy( filename+strlen(ALTERA_RO_ZIPFS_NAME), conn->uri);
 2002378:	e0bfff17 	ldw	r2,-4(fp)
 200237c:	10807604 	addi	r2,r2,472
 2002380:	e0ffbf04 	addi	r3,fp,-260
 2002384:	18c00304 	addi	r3,r3,12
 2002388:	1809883a 	mov	r4,r3
 200238c:	100b883a 	mov	r5,r2
 2002390:	200756c0 	call	200756c <strcpy>
  }
  
  /* Try to open the file */
  printf("\nFetching file:  %s.\n", filename );
 2002394:	e0bfbf04 	addi	r2,fp,-260
 2002398:	01008174 	movhi	r4,517
 200239c:	21336404 	addi	r4,r4,-12912
 20023a0:	100b883a 	mov	r5,r2
 20023a4:	2006a240 	call	2006a24 <printf>
  conn->file_handle = fopen(filename, "r");
 20023a8:	e0bfbf04 	addi	r2,fp,-260
 20023ac:	1009883a 	mov	r4,r2
 20023b0:	01408174 	movhi	r5,517
 20023b4:	29736a04 	addi	r5,r5,-12888
 20023b8:	2004ca40 	call	2004ca4 <fopen>
 20023bc:	e0ffff17 	ldw	r3,-4(fp)
 20023c0:	18800b15 	stw	r2,44(r3)
  
  /* Can't find the requested file? Try for a 404-page. */
  if (conn->file_handle == NULL)
 20023c4:	e0bfff17 	ldw	r2,-4(fp)
 20023c8:	10800b17 	ldw	r2,44(r2)
 20023cc:	10004f1e 	bne	r2,zero,200250c <http_find_file+0x238>
  {
    strcpy(filename, ALTERA_RO_ZIPFS_NAME);
 20023d0:	e0bfbf04 	addi	r2,fp,-260
 20023d4:	00dd1bb4 	movhi	r3,29806
 20023d8:	18db4bc4 	addi	r3,r3,27951
 20023dc:	10c00015 	stw	r3,0(r2)
 20023e0:	00de9bf4 	movhi	r3,31343
 20023e4:	18dc8bc4 	addi	r3,r3,29231
 20023e8:	10c00115 	stw	r3,4(r2)
 20023ec:	00dcd9b4 	movhi	r3,29542
 20023f0:	18dc1a44 	addi	r3,r3,28777
 20023f4:	10c00215 	stw	r3,8(r2)
 20023f8:	10000305 	stb	zero,12(r2)
    strcpy(filename+strlen(ALTERA_RO_ZIPFS_NAME), HTTP_NOT_FOUND_FILE);
 20023fc:	e0bfbf04 	addi	r2,fp,-260
 2002400:	10800304 	addi	r2,r2,12
 2002404:	00dd1bf4 	movhi	r3,29807
 2002408:	18db8bc4 	addi	r3,r3,28207
 200240c:	10c00015 	stw	r3,0(r2)
 2002410:	00dd5bf4 	movhi	r3,30063
 2002414:	18d997c4 	addi	r3,r3,26207
 2002418:	10c00115 	stw	r3,4(r2)
 200241c:	00da0bb4 	movhi	r3,26670
 2002420:	18d91b84 	addi	r3,r3,25710
 2002424:	10c00215 	stw	r3,8(r2)
 2002428:	00c01b34 	movhi	r3,108
 200242c:	18db5d04 	addi	r3,r3,28020
 2002430:	10c00315 	stw	r3,12(r2)
    conn->file_handle = fopen(filename, "r");
 2002434:	e0bfbf04 	addi	r2,fp,-260
 2002438:	1009883a 	mov	r4,r2
 200243c:	01408174 	movhi	r5,517
 2002440:	29736a04 	addi	r5,r5,-12888
 2002444:	2004ca40 	call	2004ca4 <fopen>
 2002448:	e0ffff17 	ldw	r3,-4(fp)
 200244c:	18800b15 	stw	r2,44(r3)
    
    /* We located the specified "404: Not-Found" page */
    if (conn->file_handle != NULL)
 2002450:	e0bfff17 	ldw	r2,-4(fp)
 2002454:	10800b17 	ldw	r2,44(r2)
 2002458:	10000726 	beq	r2,zero,2002478 <http_find_file+0x1a4>
    {
      ALT_DEBUG_ASSERT(fd != NULL);
      ret_code = http_send_file_header(conn, filename, HTTP_NOT_FOUND);
 200245c:	e0bfbf04 	addi	r2,fp,-260
 2002460:	e13fff17 	ldw	r4,-4(fp)
 2002464:	100b883a 	mov	r5,r2
 2002468:	01806504 	movi	r6,404
 200246c:	2001b740 	call	2001b74 <http_send_file_header>
 2002470:	e0bfbe15 	stw	r2,-264(fp)
 2002474:	00002b06 	br	2002524 <http_find_file+0x250>
    }
    /* Can't find the 404 page: This likely means there is no file system */
    else
    {
      fprintf(stderr, "Can't open the 404 File Not Found error page.\n");
 2002478:	00808174 	movhi	r2,517
 200247c:	10903604 	addi	r2,r2,16600
 2002480:	10800017 	ldw	r2,0(r2)
 2002484:	10800317 	ldw	r2,12(r2)
 2002488:	01008174 	movhi	r4,517
 200248c:	21336b04 	addi	r4,r4,-12884
 2002490:	01400044 	movi	r5,1
 2002494:	01800b84 	movi	r6,46
 2002498:	100f883a 	mov	r7,r2
 200249c:	2005ba80 	call	2005ba8 <fwrite>
      fprintf(stderr, "Have you programmed the filing system into flash?\n");
 20024a0:	00808174 	movhi	r2,517
 20024a4:	10903604 	addi	r2,r2,16600
 20024a8:	10800017 	ldw	r2,0(r2)
 20024ac:	10800317 	ldw	r2,12(r2)
 20024b0:	01008174 	movhi	r4,517
 20024b4:	21337704 	addi	r4,r4,-12836
 20024b8:	01400044 	movi	r5,1
 20024bc:	01800c84 	movi	r6,50
 20024c0:	100f883a 	mov	r7,r2
 20024c4:	2005ba80 	call	2005ba8 <fwrite>
      send(conn->fd,(void*)canned_http_response,strlen(canned_http_response),0);
 20024c8:	e0bfff17 	ldw	r2,-4(fp)
 20024cc:	10800317 	ldw	r2,12(r2)
 20024d0:	1009883a 	mov	r4,r2
 20024d4:	01408174 	movhi	r5,517
 20024d8:	2971df04 	addi	r5,r5,-14468
 20024dc:	01805784 	movi	r6,350
 20024e0:	000f883a 	mov	r7,zero
 20024e4:	202c5d80 	call	202c5d8 <t_send>
      
      fclose(conn->file_handle);
 20024e8:	e0bfff17 	ldw	r2,-4(fp)
 20024ec:	10800b17 	ldw	r2,44(r2)
 20024f0:	1009883a 	mov	r4,r2
 20024f4:	20046280 	call	2004628 <fclose>
      conn->state = RESET;
 20024f8:	e0bfff17 	ldw	r2,-4(fp)
 20024fc:	00c00104 	movi	r3,4
 2002500:	10c00015 	stw	r3,0(r2)
      return -1;  
 2002504:	00bfffc4 	movi	r2,-1
 2002508:	00000706 	br	2002528 <http_find_file+0x254>
    }
  }
  /* We've found the requested file; send its header and move on. */  
  else
  {
    ret_code = http_send_file_header(conn, filename, HTTP_OK);
 200250c:	e0bfbf04 	addi	r2,fp,-260
 2002510:	e13fff17 	ldw	r4,-4(fp)
 2002514:	100b883a 	mov	r5,r2
 2002518:	01803204 	movi	r6,200
 200251c:	2001b740 	call	2001b74 <http_send_file_header>
 2002520:	e0bfbe15 	stw	r2,-264(fp)
  }

  return ret_code;
 2002524:	e0bfbe17 	ldw	r2,-264(fp)
}
 2002528:	e037883a 	mov	sp,fp
 200252c:	dfc00117 	ldw	ra,4(sp)
 2002530:	df000017 	ldw	fp,0(sp)
 2002534:	dec00204 	addi	sp,sp,8
 2002538:	f800283a 	ret

0200253c <http_send_redirect>:
 * This function sends re-directs to either program_flash.html or
 * reset_sytem.html.
 */

void http_send_redirect( alt_u8 redirect[256] )
{
 200253c:	defffd04 	addi	sp,sp,-12
 2002540:	dfc00215 	stw	ra,8(sp)
 2002544:	df000115 	stw	fp,4(sp)
 2002548:	df000104 	addi	fp,sp,4
 200254c:	e13fff15 	stw	r4,-4(fp)
  printf ("Don't do anything....for now.\n");
 2002550:	01008174 	movhi	r4,517
 2002554:	21338404 	addi	r4,r4,-12784
 2002558:	2006cb40 	call	2006cb4 <puts>
}
 200255c:	e037883a 	mov	sp,fp
 2002560:	dfc00117 	ldw	ra,4(sp)
 2002564:	df000017 	ldw	fp,0(sp)
 2002568:	dec00204 	addi	sp,sp,8
 200256c:	f800283a 	ret

02002570 <http_handle_post>:
 * http_handle_post()
 *
 * Process the post request and take the appropriate action.
 */
int http_handle_post(http_conn* conn)
{
 2002570:	defffa04 	addi	sp,sp,-24
 2002574:	dfc00515 	stw	ra,20(sp)
 2002578:	df000415 	stw	fp,16(sp)
 200257c:	df000404 	addi	fp,sp,16
 2002580:	e13fff15 	stw	r4,-4(fp)
  char* tx_wr_pos = conn->tx_buffer;
 2002584:	e0bfff17 	ldw	r2,-4(fp)
 2002588:	10801217 	ldw	r2,72(r2)
 200258c:	e0bffc15 	stw	r2,-16(fp)
  int ret_code = 0;
 2002590:	e03ffd15 	stw	zero,-12(fp)
  struct upload_buf_struct *upload_buffer = &upload_buf;
 2002594:	008081b4 	movhi	r2,518
 2002598:	1083e904 	addi	r2,r2,4004
 200259c:	e0bffe15 	stw	r2,-8(fp)
  
  tx_wr_pos += sprintf(tx_wr_pos, HTTP_VERSION_STRING);
 20025a0:	e0bffc17 	ldw	r2,-16(fp)
 20025a4:	00c01204 	movi	r3,72
 20025a8:	10c00005 	stb	r3,0(r2)
 20025ac:	00c01504 	movi	r3,84
 20025b0:	10c00045 	stb	r3,1(r2)
 20025b4:	00c01504 	movi	r3,84
 20025b8:	10c00085 	stb	r3,2(r2)
 20025bc:	00c01404 	movi	r3,80
 20025c0:	10c000c5 	stb	r3,3(r2)
 20025c4:	00c00bc4 	movi	r3,47
 20025c8:	10c00105 	stb	r3,4(r2)
 20025cc:	00c00c44 	movi	r3,49
 20025d0:	10c00145 	stb	r3,5(r2)
 20025d4:	00c00b84 	movi	r3,46
 20025d8:	10c00185 	stb	r3,6(r2)
 20025dc:	00c00c44 	movi	r3,49
 20025e0:	10c001c5 	stb	r3,7(r2)
 20025e4:	00c00804 	movi	r3,32
 20025e8:	10c00205 	stb	r3,8(r2)
 20025ec:	10000245 	stb	zero,9(r2)
 20025f0:	e0bffc17 	ldw	r2,-16(fp)
 20025f4:	10800244 	addi	r2,r2,9
 20025f8:	e0bffc15 	stw	r2,-16(fp)
  tx_wr_pos += sprintf(tx_wr_pos, HTTP_NO_CONTENT_STRING);
 20025fc:	e0fffc17 	ldw	r3,-16(fp)
 2002600:	00808174 	movhi	r2,517
 2002604:	10b38c04 	addi	r2,r2,-12752
 2002608:	1809883a 	mov	r4,r3
 200260c:	1007883a 	mov	r3,r2
 2002610:	00800444 	movi	r2,17
 2002614:	180b883a 	mov	r5,r3
 2002618:	100d883a 	mov	r6,r2
 200261c:	200660c0 	call	200660c <memcpy>
 2002620:	e0bffc17 	ldw	r2,-16(fp)
 2002624:	10800404 	addi	r2,r2,16
 2002628:	e0bffc15 	stw	r2,-16(fp)
  tx_wr_pos += sprintf(tx_wr_pos, HTTP_CLOSE);
 200262c:	e0fffc17 	ldw	r3,-16(fp)
 2002630:	00808174 	movhi	r2,517
 2002634:	10b34d04 	addi	r2,r2,-13004
 2002638:	1809883a 	mov	r4,r3
 200263c:	1007883a 	mov	r3,r2
 2002640:	00800504 	movi	r2,20
 2002644:	180b883a 	mov	r5,r3
 2002648:	100d883a 	mov	r6,r2
 200264c:	200660c0 	call	200660c <memcpy>
 2002650:	e0bffc17 	ldw	r2,-16(fp)
 2002654:	108004c4 	addi	r2,r2,19
 2002658:	e0bffc15 	stw	r2,-16(fp)
  tx_wr_pos += sprintf(tx_wr_pos, HTTP_END_OF_HEADERS);
 200265c:	e0bffc17 	ldw	r2,-16(fp)
 2002660:	00c00344 	movi	r3,13
 2002664:	10c00005 	stb	r3,0(r2)
 2002668:	00c00284 	movi	r3,10
 200266c:	10c00045 	stb	r3,1(r2)
 2002670:	00c00344 	movi	r3,13
 2002674:	10c00085 	stb	r3,2(r2)
 2002678:	00c00284 	movi	r3,10
 200267c:	10c000c5 	stb	r3,3(r2)
 2002680:	10000105 	stb	zero,4(r2)
 2002684:	e0bffc17 	ldw	r2,-16(fp)
 2002688:	10800104 	addi	r2,r2,4
 200268c:	e0bffc15 	stw	r2,-16(fp)

  if (!strcmp(conn->uri, mapping.name))
 2002690:	e0bfff17 	ldw	r2,-4(fp)
 2002694:	10c07604 	addi	r3,r2,472
 2002698:	d0a00017 	ldw	r2,-32768(gp)
 200269c:	1809883a 	mov	r4,r3
 20026a0:	100b883a 	mov	r5,r2
 20026a4:	20074c80 	call	20074c8 <strcmp>
 20026a8:	1000141e 	bne	r2,zero,20026fc <http_handle_post+0x18c>
  {
    send(conn->fd, conn->tx_buffer, (tx_wr_pos - conn->tx_buffer), 0);
 20026ac:	e0bfff17 	ldw	r2,-4(fp)
 20026b0:	11000317 	ldw	r4,12(r2)
 20026b4:	e0bfff17 	ldw	r2,-4(fp)
 20026b8:	10c01217 	ldw	r3,72(r2)
 20026bc:	e17ffc17 	ldw	r5,-16(fp)
 20026c0:	e0bfff17 	ldw	r2,-4(fp)
 20026c4:	10801217 	ldw	r2,72(r2)
 20026c8:	2885c83a 	sub	r2,r5,r2
 20026cc:	180b883a 	mov	r5,r3
 20026d0:	100d883a 	mov	r6,r2
 20026d4:	000f883a 	mov	r7,zero
 20026d8:	202c5d80 	call	202c5d8 <t_send>
    conn->state = CLOSE;
 20026dc:	e0bfff17 	ldw	r2,-4(fp)
 20026e0:	00c00144 	movi	r3,5
 20026e4:	10c00015 	stw	r3,0(r2)
    mapping.func();
 20026e8:	00808174 	movhi	r2,517
 20026ec:	10902b04 	addi	r2,r2,16556
 20026f0:	10800017 	ldw	r2,0(r2)
 20026f4:	103ee83a 	callr	r2
 20026f8:	00006406 	br	200288c <http_handle_post+0x31c>
  }

  else if (!strcmp(conn->uri, sweep_field.name))
 20026fc:	e0bfff17 	ldw	r2,-4(fp)
 2002700:	10c07604 	addi	r3,r2,472
 2002704:	d0a00217 	ldw	r2,-32760(gp)
 2002708:	1809883a 	mov	r4,r3
 200270c:	100b883a 	mov	r5,r2
 2002710:	20074c80 	call	20074c8 <strcmp>
 2002714:	1000151e 	bne	r2,zero,200276c <http_handle_post+0x1fc>
  {
    send(conn->fd, conn->tx_buffer, (tx_wr_pos - conn->tx_buffer), 0);
 2002718:	e0bfff17 	ldw	r2,-4(fp)
 200271c:	11000317 	ldw	r4,12(r2)
 2002720:	e0bfff17 	ldw	r2,-4(fp)
 2002724:	10c01217 	ldw	r3,72(r2)
 2002728:	e17ffc17 	ldw	r5,-16(fp)
 200272c:	e0bfff17 	ldw	r2,-4(fp)
 2002730:	10801217 	ldw	r2,72(r2)
 2002734:	2885c83a 	sub	r2,r5,r2
 2002738:	180b883a 	mov	r5,r3
 200273c:	100d883a 	mov	r6,r2
 2002740:	000f883a 	mov	r7,zero
 2002744:	202c5d80 	call	202c5d8 <t_send>
    conn->state = CLOSE;
 2002748:	e0bfff17 	ldw	r2,-4(fp)
 200274c:	00c00144 	movi	r3,5
 2002750:	10c00015 	stw	r3,0(r2)
    sweep_field.func(conn);
 2002754:	00808174 	movhi	r2,517
 2002758:	10902d04 	addi	r2,r2,16564
 200275c:	10800017 	ldw	r2,0(r2)
 2002760:	e13fff17 	ldw	r4,-4(fp)
 2002764:	103ee83a 	callr	r2
 2002768:	00004806 	br	200288c <http_handle_post+0x31c>
  }
  
  else if (!strcmp(conn->uri, lcd_field.name))
 200276c:	e0bfff17 	ldw	r2,-4(fp)
 2002770:	10c07604 	addi	r3,r2,472
 2002774:	d0a00417 	ldw	r2,-32752(gp)
 2002778:	1809883a 	mov	r4,r3
 200277c:	100b883a 	mov	r5,r2
 2002780:	20074c80 	call	20074c8 <strcmp>
 2002784:	1000151e 	bne	r2,zero,20027dc <http_handle_post+0x26c>
  {
    send(conn->fd, conn->tx_buffer, (tx_wr_pos - conn->tx_buffer), 0);
 2002788:	e0bfff17 	ldw	r2,-4(fp)
 200278c:	11000317 	ldw	r4,12(r2)
 2002790:	e0bfff17 	ldw	r2,-4(fp)
 2002794:	10c01217 	ldw	r3,72(r2)
 2002798:	e17ffc17 	ldw	r5,-16(fp)
 200279c:	e0bfff17 	ldw	r2,-4(fp)
 20027a0:	10801217 	ldw	r2,72(r2)
 20027a4:	2885c83a 	sub	r2,r5,r2
 20027a8:	180b883a 	mov	r5,r3
 20027ac:	100d883a 	mov	r6,r2
 20027b0:	000f883a 	mov	r7,zero
 20027b4:	202c5d80 	call	202c5d8 <t_send>
    conn->state = CLOSE;
 20027b8:	e0bfff17 	ldw	r2,-4(fp)
 20027bc:	00c00144 	movi	r3,5
 20027c0:	10c00015 	stw	r3,0(r2)
    lcd_field.func(conn);
 20027c4:	00808174 	movhi	r2,517
 20027c8:	10902f04 	addi	r2,r2,16572
 20027cc:	10800017 	ldw	r2,0(r2)
 20027d0:	e13fff17 	ldw	r4,-4(fp)
 20027d4:	103ee83a 	callr	r2
 20027d8:	00002c06 	br	200288c <http_handle_post+0x31c>
  }

  else if (!strcmp(conn->uri, upload_field.name))
 20027dc:	e0bfff17 	ldw	r2,-4(fp)
 20027e0:	10c07604 	addi	r3,r2,472
 20027e4:	d0a00617 	ldw	r2,-32744(gp)
 20027e8:	1809883a 	mov	r4,r3
 20027ec:	100b883a 	mov	r5,r2
 20027f0:	20074c80 	call	20074c8 <strcmp>
 20027f4:	1000191e 	bne	r2,zero,200285c <http_handle_post+0x2ec>
  {
    conn->file_upload = 1;
 20027f8:	e0bfff17 	ldw	r2,-4(fp)
 20027fc:	00c00044 	movi	r3,1
 2002800:	10c00a15 	stw	r3,40(r2)
    upload_buffer->rd_pos = upload_buffer->wr_pos = upload_buffer->buffer;
 2002804:	e0bffe17 	ldw	r2,-8(fp)
 2002808:	10c00204 	addi	r3,r2,8
 200280c:	e0bffe17 	ldw	r2,-8(fp)
 2002810:	10c00015 	stw	r3,0(r2)
 2002814:	e0bffe17 	ldw	r2,-8(fp)
 2002818:	10c00017 	ldw	r3,0(r2)
 200281c:	e0bffe17 	ldw	r2,-8(fp)
 2002820:	10c00115 	stw	r3,4(r2)
    memset(upload_buffer->rd_pos, '\0', conn->content_length );
 2002824:	e0bffe17 	ldw	r2,-8(fp)
 2002828:	10c00117 	ldw	r3,4(r2)
 200282c:	e0bfff17 	ldw	r2,-4(fp)
 2002830:	10800517 	ldw	r2,20(r2)
 2002834:	1809883a 	mov	r4,r3
 2002838:	000b883a 	mov	r5,zero
 200283c:	100d883a 	mov	r6,r2
 2002840:	200682c0 	call	200682c <memset>
    upload_field.func(conn);
 2002844:	00808174 	movhi	r2,517
 2002848:	10903104 	addi	r2,r2,16580
 200284c:	10800017 	ldw	r2,0(r2)
 2002850:	e13fff17 	ldw	r4,-4(fp)
 2002854:	103ee83a 	callr	r2
 2002858:	00000c06 	br	200288c <http_handle_post+0x31c>
  }
  else if (!strcmp(conn->uri, flash_field.name))
 200285c:	e0bfff17 	ldw	r2,-4(fp)
 2002860:	10c07604 	addi	r3,r2,472
 2002864:	d0a00817 	ldw	r2,-32736(gp)
 2002868:	1809883a 	mov	r4,r3
 200286c:	100b883a 	mov	r5,r2
 2002870:	20074c80 	call	20074c8 <strcmp>
 2002874:	1000051e 	bne	r2,zero,200288c <http_handle_post+0x31c>
  {
    /* Kick off the flash programming. */
    flash_field.func( conn );
 2002878:	00808174 	movhi	r2,517
 200287c:	10903304 	addi	r2,r2,16588
 2002880:	10800017 	ldw	r2,0(r2)
 2002884:	e13fff17 	ldw	r4,-4(fp)
 2002888:	103ee83a 	callr	r2
    /* Close the socket. */
    send(conn->fd, conn->tx_buffer, (tx_wr_pos - conn->tx_buffer), 0);
    reset_field.func();
  }
#endif  
  return ret_code;
 200288c:	e0bffd17 	ldw	r2,-12(fp)
}
 2002890:	e037883a 	mov	sp,fp
 2002894:	dfc00117 	ldw	ra,4(sp)
 2002898:	df000017 	ldw	fp,0(sp)
 200289c:	dec00204 	addi	sp,sp,8
 20028a0:	f800283a 	ret

020028a4 <http_prepare_response>:
 * 
 * Service the various HTTP commands, calling the relevant subroutine. 
 * We only handle GET and POST.
 */
int http_prepare_response(http_conn* conn)
{
 20028a4:	defffc04 	addi	sp,sp,-16
 20028a8:	dfc00315 	stw	ra,12(sp)
 20028ac:	df000215 	stw	fp,8(sp)
 20028b0:	df000204 	addi	fp,sp,8
 20028b4:	e13fff15 	stw	r4,-4(fp)
  int ret_code = 0;
 20028b8:	e03ffe15 	stw	zero,-8(fp)
  
  switch (conn->action)
 20028bc:	e0bfff17 	ldw	r2,-4(fp)
 20028c0:	10800117 	ldw	r2,4(r2)
 20028c4:	10c00060 	cmpeqi	r3,r2,1
 20028c8:	1800031e 	bne	r3,zero,20028d8 <http_prepare_response+0x34>
 20028cc:	108000a0 	cmpeqi	r2,r2,2
 20028d0:	1000051e 	bne	r2,zero,20028e8 <http_prepare_response+0x44>
 20028d4:	00000806 	br	20028f8 <http_prepare_response+0x54>
  {
    case GET:
    {
      /* Find file from uri */
      ret_code = http_find_file(conn);
 20028d8:	e13fff17 	ldw	r4,-4(fp)
 20028dc:	20022d40 	call	20022d4 <http_find_file>
 20028e0:	e0bffe15 	stw	r2,-8(fp)
      break;
 20028e4:	00000506 	br	20028fc <http_prepare_response+0x58>
    }
    case POST:
    {
      /* Handle POSTs. */
      ret_code = http_handle_post(conn);
 20028e8:	e13fff17 	ldw	r4,-4(fp)
 20028ec:	20025700 	call	2002570 <http_handle_post>
 20028f0:	e0bffe15 	stw	r2,-8(fp)
      break;
 20028f4:	00000106 	br	20028fc <http_prepare_response+0x58>
    }
    default:
    {
      break;
 20028f8:	0001883a 	nop
    }
  } /* switch (conn->action) */
  
  return ret_code;
 20028fc:	e0bffe17 	ldw	r2,-8(fp)
}
 2002900:	e037883a 	mov	sp,fp
 2002904:	dfc00117 	ldw	ra,4(sp)
 2002908:	df000017 	ldw	fp,0(sp)
 200290c:	dec00204 	addi	sp,sp,8
 2002910:	f800283a 	ret

02002914 <http_handle_receive>:
 * http_handle_receive()
 *
 * Work out what the request we received was, and handle it.
 */
void http_handle_receive(http_conn* conn, int http_instance)
{
 2002914:	defffa04 	addi	sp,sp,-24
 2002918:	dfc00515 	stw	ra,20(sp)
 200291c:	df000415 	stw	fp,16(sp)
 2002920:	df000404 	addi	fp,sp,16
 2002924:	e13ffe15 	stw	r4,-8(fp)
 2002928:	e17fff15 	stw	r5,-4(fp)
  int data_used, rx_code;
  
  if (conn->state == READY)
 200292c:	e0bffe17 	ldw	r2,-8(fp)
 2002930:	10800017 	ldw	r2,0(r2)
 2002934:	10002d1e 	bne	r2,zero,20029ec <http_handle_receive+0xd8>
  {
    rx_code = recv(conn->fd, conn->rx_wr_pos, 
 2002938:	e0bffe17 	ldw	r2,-8(fp)
 200293c:	11000317 	ldw	r4,12(r2)
 2002940:	e0bffe17 	ldw	r2,-8(fp)
 2002944:	10c00e17 	ldw	r3,56(r2)
 2002948:	e0bffe17 	ldw	r2,-8(fp)
 200294c:	10801117 	ldw	r2,68(r2)
 2002950:	100b883a 	mov	r5,r2
 2002954:	e0bffe17 	ldw	r2,-8(fp)
 2002958:	10800e17 	ldw	r2,56(r2)
 200295c:	2885c83a 	sub	r2,r5,r2
 2002960:	1087ffc4 	addi	r2,r2,8191
 2002964:	180b883a 	mov	r5,r3
 2002968:	100d883a 	mov	r6,r2
 200296c:	000f883a 	mov	r7,zero
 2002970:	202c1d40 	call	202c1d4 <t_recv>
 2002974:	e0bffc15 	stw	r2,-16(fp)
    /* 
     * If a valid data received, take care of buffer pointer & string 
     * termination and move on. Otherwise, we need to return and wait for more
     * data to arrive (until we time out).
     */
    if(rx_code > 0)
 2002978:	e0bffc17 	ldw	r2,-16(fp)
 200297c:	00801b0e 	bge	zero,r2,20029ec <http_handle_receive+0xd8>
    {
      /* Increment rx_wr_pos by the amount of data received. */
      conn->rx_wr_pos += rx_code;
 2002980:	e0bffe17 	ldw	r2,-8(fp)
 2002984:	10c00e17 	ldw	r3,56(r2)
 2002988:	e0bffc17 	ldw	r2,-16(fp)
 200298c:	1887883a 	add	r3,r3,r2
 2002990:	e0bffe17 	ldw	r2,-8(fp)
 2002994:	10c00e15 	stw	r3,56(r2)
      /* Place a zero just after the data received to serve as a terminator. */
      *(conn->rx_wr_pos+1) = 0;
 2002998:	e0bffe17 	ldw	r2,-8(fp)
 200299c:	10800e17 	ldw	r2,56(r2)
 20029a0:	10800044 	addi	r2,r2,1
 20029a4:	10000005 	stb	zero,0(r2)
      
      if(strstr(conn->rx_buffer, HTTP_END_OF_HEADERS))
 20029a8:	e0bffe17 	ldw	r2,-8(fp)
 20029ac:	10801117 	ldw	r2,68(r2)
 20029b0:	1009883a 	mov	r4,r2
 20029b4:	01408174 	movhi	r5,517
 20029b8:	29739104 	addi	r5,r5,-12732
 20029bc:	20083340 	call	2008334 <strstr>
 20029c0:	10000326 	beq	r2,zero,20029d0 <http_handle_receive+0xbc>
      {
        conn->state = PROCESS;
 20029c4:	e0bffe17 	ldw	r2,-8(fp)
 20029c8:	00c00044 	movi	r3,1
 20029cc:	10c00015 	stw	r3,0(r2)
      }
      /* If the connection is a file upload, skip right to DATA.*/
      if(conn->file_upload == 1)
 20029d0:	e0bffe17 	ldw	r2,-8(fp)
 20029d4:	10800a17 	ldw	r2,40(r2)
 20029d8:	10800058 	cmpnei	r2,r2,1
 20029dc:	1000031e 	bne	r2,zero,20029ec <http_handle_receive+0xd8>
      {
        conn->state = DATA;
 20029e0:	e0bffe17 	ldw	r2,-8(fp)
 20029e4:	00c00084 	movi	r3,2
 20029e8:	10c00015 	stw	r3,0(r2)
      }
    }
  }
  
  if(conn->state == PROCESS)
 20029ec:	e0bffe17 	ldw	r2,-8(fp)
 20029f0:	10800017 	ldw	r2,0(r2)
 20029f4:	10800058 	cmpnei	r2,r2,1
 20029f8:	1000a51e 	bne	r2,zero,2002c90 <http_handle_receive+0x37c>
 20029fc:	00808174 	movhi	r2,517
 2002a00:	10909604 	addi	r2,r2,16984
 2002a04:	10800017 	ldw	r2,0(r2)
  {
    /* 
     * If we (think) we have valid headers, keep the connection alive a bit
     * longer.
     */
    conn->activity_time = alt_nticks();
 2002a08:	1007883a 	mov	r3,r2
 2002a0c:	e0bffe17 	ldw	r2,-8(fp)
 2002a10:	10c00c15 	stw	r3,48(r2)
    /* 
     * Attempt to process the fundamentals of the HTTP request. We may 
     * error out and reset if the request wasn't complete, or something
     * was asked from us that we can't handle.
     */
    if (http_process_request(conn))
 2002a14:	e13ffe17 	ldw	r4,-8(fp)
 2002a18:	20017140 	call	2001714 <http_process_request>
 2002a1c:	10005326 	beq	r2,zero,2002b6c <http_handle_receive+0x258>
    {
      fprintf(stderr, "[http_handle_receive] http_process_request failed\n");
 2002a20:	00808174 	movhi	r2,517
 2002a24:	10903604 	addi	r2,r2,16600
 2002a28:	10800017 	ldw	r2,0(r2)
 2002a2c:	10800317 	ldw	r2,12(r2)
 2002a30:	01008174 	movhi	r4,517
 2002a34:	21339304 	addi	r4,r4,-12724
 2002a38:	01400044 	movi	r5,1
 2002a3c:	01800c84 	movi	r6,50
 2002a40:	100f883a 	mov	r7,r2
 2002a44:	2005ba80 	call	2005ba8 <fwrite>
      conn->state = RESET;
 2002a48:	e0bffe17 	ldw	r2,-8(fp)
 2002a4c:	00c00104 	movi	r3,4
 2002a50:	10c00015 	stw	r3,0(r2)
      http_manage_connection(conn, http_instance);
 2002a54:	e13ffe17 	ldw	r4,-8(fp)
 2002a58:	e17fff17 	ldw	r5,-4(fp)
 2002a5c:	20010980 	call	2001098 <http_manage_connection>
     * done, send some headers of our own back to let the client know 
     * what's happening. Also, once all in-coming headers have been parsed
     * we can manage our RX buffer to prepare for the next in-coming 
     * connection.
     */
    while(conn->state == PROCESS)
 2002a60:	00004206 	br	2002b6c <http_handle_receive+0x258>
    {
      if(http_read_line(conn))
 2002a64:	e13ffe17 	ldw	r4,-8(fp)
 2002a68:	20013500 	call	2001350 <http_read_line>
 2002a6c:	10001126 	beq	r2,zero,2002ab4 <http_handle_receive+0x1a0>
      {
        fprintf(stderr, "[http_handle_receive] error reading headers\n");
 2002a70:	00808174 	movhi	r2,517
 2002a74:	10903604 	addi	r2,r2,16600
 2002a78:	10800017 	ldw	r2,0(r2)
 2002a7c:	10800317 	ldw	r2,12(r2)
 2002a80:	01008174 	movhi	r4,517
 2002a84:	2133a004 	addi	r4,r4,-12672
 2002a88:	01400044 	movi	r5,1
 2002a8c:	01800b04 	movi	r6,44
 2002a90:	100f883a 	mov	r7,r2
 2002a94:	2005ba80 	call	2005ba8 <fwrite>
        conn->state = RESET;
 2002a98:	e0bffe17 	ldw	r2,-8(fp)
 2002a9c:	00c00104 	movi	r3,4
 2002aa0:	10c00015 	stw	r3,0(r2)
        http_manage_connection(conn, http_instance);
 2002aa4:	e13ffe17 	ldw	r4,-8(fp)
 2002aa8:	e17fff17 	ldw	r5,-4(fp)
 2002aac:	20010980 	call	2001098 <http_manage_connection>
        break;
 2002ab0:	00003306 	br	2002b80 <http_handle_receive+0x26c>
      }
      if(http_process_headers(conn))
 2002ab4:	e13ffe17 	ldw	r4,-8(fp)
 2002ab8:	20015000 	call	2001500 <http_process_headers>
 2002abc:	10002c26 	beq	r2,zero,2002b70 <http_handle_receive+0x25c>
      {
        if( (conn->rx_rd_pos = strstr(conn->rx_rd_pos, HTTP_CR_LF)) )
 2002ac0:	e0bffe17 	ldw	r2,-8(fp)
 2002ac4:	10800d17 	ldw	r2,52(r2)
 2002ac8:	1009883a 	mov	r4,r2
 2002acc:	01408174 	movhi	r5,517
 2002ad0:	2973ac04 	addi	r5,r5,-12624
 2002ad4:	20083340 	call	2008334 <strstr>
 2002ad8:	e0fffe17 	ldw	r3,-8(fp)
 2002adc:	18800d15 	stw	r2,52(r3)
 2002ae0:	e0bffe17 	ldw	r2,-8(fp)
 2002ae4:	10800d17 	ldw	r2,52(r2)
 2002ae8:	10000f26 	beq	r2,zero,2002b28 <http_handle_receive+0x214>
        {
          conn->rx_rd_pos += 2;
 2002aec:	e0bffe17 	ldw	r2,-8(fp)
 2002af0:	10800d17 	ldw	r2,52(r2)
 2002af4:	10c00084 	addi	r3,r2,2
 2002af8:	e0bffe17 	ldw	r2,-8(fp)
 2002afc:	10c00d15 	stw	r3,52(r2)
          conn->state = DATA;
 2002b00:	e0bffe17 	ldw	r2,-8(fp)
 2002b04:	00c00084 	movi	r3,2
 2002b08:	10c00015 	stw	r3,0(r2)
 2002b0c:	00808174 	movhi	r2,517
 2002b10:	10909604 	addi	r2,r2,16984
 2002b14:	10800017 	ldw	r2,0(r2)
          conn->activity_time = alt_nticks();
 2002b18:	1007883a 	mov	r3,r2
 2002b1c:	e0bffe17 	ldw	r2,-8(fp)
 2002b20:	10c00c15 	stw	r3,48(r2)
 2002b24:	00001206 	br	2002b70 <http_handle_receive+0x25c>
        }
        else
        {
          fprintf(stderr, "[http_handle_receive] Can't find end of headers!\n");
 2002b28:	00808174 	movhi	r2,517
 2002b2c:	10903604 	addi	r2,r2,16600
 2002b30:	10800017 	ldw	r2,0(r2)
 2002b34:	10800317 	ldw	r2,12(r2)
 2002b38:	01008174 	movhi	r4,517
 2002b3c:	2133ad04 	addi	r4,r4,-12620
 2002b40:	01400044 	movi	r5,1
 2002b44:	01800c44 	movi	r6,49
 2002b48:	100f883a 	mov	r7,r2
 2002b4c:	2005ba80 	call	2005ba8 <fwrite>
          conn->state = RESET;
 2002b50:	e0bffe17 	ldw	r2,-8(fp)
 2002b54:	00c00104 	movi	r3,4
 2002b58:	10c00015 	stw	r3,0(r2)
          http_manage_connection(conn, http_instance);
 2002b5c:	e13ffe17 	ldw	r4,-8(fp)
 2002b60:	e17fff17 	ldw	r5,-4(fp)
 2002b64:	20010980 	call	2001098 <http_manage_connection>
          break;
 2002b68:	00000506 	br	2002b80 <http_handle_receive+0x26c>
     * done, send some headers of our own back to let the client know 
     * what's happening. Also, once all in-coming headers have been parsed
     * we can manage our RX buffer to prepare for the next in-coming 
     * connection.
     */
    while(conn->state == PROCESS)
 2002b6c:	0001883a 	nop
 2002b70:	e0bffe17 	ldw	r2,-8(fp)
 2002b74:	10800017 	ldw	r2,0(r2)
 2002b78:	10800060 	cmpeqi	r2,r2,1
 2002b7c:	103fb91e 	bne	r2,zero,2002a64 <http_handle_receive+0x150>
          break;
        }
      } 
    } /* while(conn->state == PROCESS) */
    
    if( http_prepare_response(conn) )
 2002b80:	e13ffe17 	ldw	r4,-8(fp)
 2002b84:	20028a40 	call	20028a4 <http_prepare_response>
 2002b88:	10001026 	beq	r2,zero,2002bcc <http_handle_receive+0x2b8>
    {
      conn->state = RESET;
 2002b8c:	e0bffe17 	ldw	r2,-8(fp)
 2002b90:	00c00104 	movi	r3,4
 2002b94:	10c00015 	stw	r3,0(r2)
      fprintf(stderr, "[http_handle_receive] Error preparing response\n");
 2002b98:	00808174 	movhi	r2,517
 2002b9c:	10903604 	addi	r2,r2,16600
 2002ba0:	10800017 	ldw	r2,0(r2)
 2002ba4:	10800317 	ldw	r2,12(r2)
 2002ba8:	01008174 	movhi	r4,517
 2002bac:	2133ba04 	addi	r4,r4,-12568
 2002bb0:	01400044 	movi	r5,1
 2002bb4:	01800bc4 	movi	r6,47
 2002bb8:	100f883a 	mov	r7,r2
 2002bbc:	2005ba80 	call	2005ba8 <fwrite>
      http_manage_connection(conn, http_instance);
 2002bc0:	e13ffe17 	ldw	r4,-8(fp)
 2002bc4:	e17fff17 	ldw	r5,-4(fp)
 2002bc8:	20010980 	call	2001098 <http_manage_connection>
    /* 
     * Manage RX Buffer: Slide any un-read data in our input buffer 
     * down over previously-read data that can now be overwritten, and 
     * zero-out any bytes in question at the top of our new un-read space. 
     */
    if(conn->rx_rd_pos > (conn->rx_buffer + HTTP_RX_BUF_SIZE))
 2002bcc:	e0bffe17 	ldw	r2,-8(fp)
 2002bd0:	10800d17 	ldw	r2,52(r2)
 2002bd4:	e0fffe17 	ldw	r3,-8(fp)
 2002bd8:	18c01117 	ldw	r3,68(r3)
 2002bdc:	18c80004 	addi	r3,r3,8192
 2002be0:	1880052e 	bgeu	r3,r2,2002bf8 <http_handle_receive+0x2e4>
    {
      conn->rx_rd_pos = conn->rx_buffer + HTTP_RX_BUF_SIZE;
 2002be4:	e0bffe17 	ldw	r2,-8(fp)
 2002be8:	10801117 	ldw	r2,68(r2)
 2002bec:	10c80004 	addi	r3,r2,8192
 2002bf0:	e0bffe17 	ldw	r2,-8(fp)
 2002bf4:	10c00d15 	stw	r3,52(r2)
    }
        
    data_used = conn->rx_rd_pos - conn->rx_buffer;
 2002bf8:	e0bffe17 	ldw	r2,-8(fp)
 2002bfc:	10800d17 	ldw	r2,52(r2)
 2002c00:	1007883a 	mov	r3,r2
 2002c04:	e0bffe17 	ldw	r2,-8(fp)
 2002c08:	10801117 	ldw	r2,68(r2)
 2002c0c:	1885c83a 	sub	r2,r3,r2
 2002c10:	e0bffd15 	stw	r2,-12(fp)
    memmove(conn->rx_buffer,conn->rx_rd_pos,conn->rx_wr_pos-conn->rx_rd_pos);
 2002c14:	e0bffe17 	ldw	r2,-8(fp)
 2002c18:	11001117 	ldw	r4,68(r2)
 2002c1c:	e0bffe17 	ldw	r2,-8(fp)
 2002c20:	10c00d17 	ldw	r3,52(r2)
 2002c24:	e0bffe17 	ldw	r2,-8(fp)
 2002c28:	10800e17 	ldw	r2,56(r2)
 2002c2c:	100b883a 	mov	r5,r2
 2002c30:	e0bffe17 	ldw	r2,-8(fp)
 2002c34:	10800d17 	ldw	r2,52(r2)
 2002c38:	2885c83a 	sub	r2,r5,r2
 2002c3c:	180b883a 	mov	r5,r3
 2002c40:	100d883a 	mov	r6,r2
 2002c44:	20067040 	call	2006704 <memmove>
    conn->rx_rd_pos = conn->rx_buffer;
 2002c48:	e0bffe17 	ldw	r2,-8(fp)
 2002c4c:	10c01117 	ldw	r3,68(r2)
 2002c50:	e0bffe17 	ldw	r2,-8(fp)
 2002c54:	10c00d15 	stw	r3,52(r2)
    conn->rx_wr_pos -= data_used;
 2002c58:	e0bffe17 	ldw	r2,-8(fp)
 2002c5c:	10c00e17 	ldw	r3,56(r2)
 2002c60:	e0bffd17 	ldw	r2,-12(fp)
 2002c64:	0085c83a 	sub	r2,zero,r2
 2002c68:	1887883a 	add	r3,r3,r2
 2002c6c:	e0bffe17 	ldw	r2,-8(fp)
 2002c70:	10c00e15 	stw	r3,56(r2)
    memset(conn->rx_wr_pos, 0, data_used);
 2002c74:	e0bffe17 	ldw	r2,-8(fp)
 2002c78:	10c00e17 	ldw	r3,56(r2)
 2002c7c:	e0bffd17 	ldw	r2,-12(fp)
 2002c80:	1809883a 	mov	r4,r3
 2002c84:	000b883a 	mov	r5,zero
 2002c88:	100d883a 	mov	r6,r2
 2002c8c:	200682c0 	call	200682c <memset>
   }
   
  if (conn->state == DATA && conn->file_upload == 1 )
 2002c90:	e0bffe17 	ldw	r2,-8(fp)
 2002c94:	10800017 	ldw	r2,0(r2)
 2002c98:	10800098 	cmpnei	r2,r2,2
 2002c9c:	1000091e 	bne	r2,zero,2002cc4 <http_handle_receive+0x3b0>
 2002ca0:	e0bffe17 	ldw	r2,-8(fp)
 2002ca4:	10800a17 	ldw	r2,40(r2)
 2002ca8:	10800058 	cmpnei	r2,r2,1
 2002cac:	1000051e 	bne	r2,zero,2002cc4 <http_handle_receive+0x3b0>
  {
    /* Jump to the file_upload() function....process more received data. */
    upload_field.func(conn);
 2002cb0:	00808174 	movhi	r2,517
 2002cb4:	10903104 	addi	r2,r2,16580
 2002cb8:	10800017 	ldw	r2,0(r2)
 2002cbc:	e13ffe17 	ldw	r4,-8(fp)
 2002cc0:	103ee83a 	callr	r2
  }
}
 2002cc4:	e037883a 	mov	sp,fp
 2002cc8:	dfc00117 	ldw	ra,4(sp)
 2002ccc:	df000017 	ldw	fp,0(sp)
 2002cd0:	dec00204 	addi	sp,sp,8
 2002cd4:	f800283a 	ret

02002cd8 <http_handle_transmit>:
 * will be called from the thread's main loop when ever the socket is in 
 * the 'DATA' state and the socket is marked as available for writing (free
 * buffer space). 
 */
void http_handle_transmit(http_conn* conn, int http_instance)
{
 2002cd8:	defffc04 	addi	sp,sp,-16
 2002cdc:	dfc00315 	stw	ra,12(sp)
 2002ce0:	df000215 	stw	fp,8(sp)
 2002ce4:	df000204 	addi	fp,sp,8
 2002ce8:	e13ffe15 	stw	r4,-8(fp)
 2002cec:	e17fff15 	stw	r5,-4(fp)
  if( http_send_file_chunk(conn) )
 2002cf0:	e13ffe17 	ldw	r4,-8(fp)
 2002cf4:	20019e00 	call	20019e0 <http_send_file_chunk>
 2002cf8:	10000a26 	beq	r2,zero,2002d24 <http_handle_transmit+0x4c>
  {
    fprintf(stderr, "[http_handle_transmit]: Send file chunk failed\n");
 2002cfc:	00808174 	movhi	r2,517
 2002d00:	10903604 	addi	r2,r2,16600
 2002d04:	10800017 	ldw	r2,0(r2)
 2002d08:	10800317 	ldw	r2,12(r2)
 2002d0c:	01008174 	movhi	r4,517
 2002d10:	2133c604 	addi	r4,r4,-12520
 2002d14:	01400044 	movi	r5,1
 2002d18:	01800bc4 	movi	r6,47
 2002d1c:	100f883a 	mov	r7,r2
 2002d20:	2005ba80 	call	2005ba8 <fwrite>
  }
}
 2002d24:	e037883a 	mov	sp,fp
 2002d28:	dfc00117 	ldw	ra,4(sp)
 2002d2c:	df000017 	ldw	fp,0(sp)
 2002d30:	dec00204 	addi	sp,sp,8
 2002d34:	f800283a 	ret

02002d38 <WSTask>:
 * reading or writing. This, in conjunction with the use of non-blocking 
 * send() and recv() calls and sending responses broken up into chunks lets
 * us handle multiple active HTTP requests.
 */
void WSTask()
{
 2002d38:	deff7204 	addi	sp,sp,-568
 2002d3c:	dfc08d15 	stw	ra,564(sp)
 2002d40:	df008c15 	stw	fp,560(sp)
 2002d44:	df008c04 	addi	fp,sp,560
   * The socket() call creates an endpoint for TCP of UDP communication. It 
   * returns a descriptor (similar to a file descriptor) that we call fd_listen,
   * or, "the socket we're listening on for connection requests" in our web
   * server example.
   */ 
  if ((fd_listen = socket(AF_INET, SOCK_STREAM, 0)) < 0)
 2002d48:	01000084 	movi	r4,2
 2002d4c:	01400044 	movi	r5,1
 2002d50:	000d883a 	mov	r6,zero
 2002d54:	202b4e00 	call	202b4e0 <t_socket>
 2002d58:	e0bf7715 	stw	r2,-548(fp)
 2002d5c:	e0bf7717 	ldw	r2,-548(fp)
 2002d60:	1000030e 	bge	r2,zero,2002d70 <WSTask+0x38>
  {
    die_with_error("[WSTask] Listening socket creation failed");
 2002d64:	01008174 	movhi	r4,517
 2002d68:	2133d204 	addi	r4,r4,-12472
 2002d6c:	200308c0 	call	200308c <die_with_error>
   * port and incoming address. In this case we're binding to HTTP_PORT and to
   * INADDR_ANY address (allowing anyone to connect to us. Bind may fail for 
   * various reasons, but the most common is that some other socket is bound to
   * the port we're requesting. 
   */ 
  addr.sin_family = AF_INET;
 2002d70:	00800084 	movi	r2,2
 2002d74:	e0bf780d 	sth	r2,-544(fp)
  addr.sin_port = htons(HTTP_PORT);
 2002d78:	00940004 	movi	r2,20480
 2002d7c:	e0bf788d 	sth	r2,-542(fp)
  addr.sin_addr.s_addr = INADDR_ANY;
 2002d80:	e03f7915 	stw	zero,-540(fp)
    
  if ((bind(fd_listen,(struct sockaddr *)&addr,sizeof(addr))) < 0)
 2002d84:	e0bf7804 	addi	r2,fp,-544
 2002d88:	e13f7717 	ldw	r4,-548(fp)
 2002d8c:	100b883a 	mov	r5,r2
 2002d90:	01800404 	movi	r6,16
 2002d94:	202b5600 	call	202b560 <t_bind>
 2002d98:	1000030e 	bge	r2,zero,2002da8 <WSTask+0x70>
  {
    die_with_error("[WSTask] Bind failed");
 2002d9c:	01008174 	movhi	r4,517
 2002da0:	2133dd04 	addi	r4,r4,-12428
 2002da4:	200308c0 	call	200308c <die_with_error>
   * Sockets primer, continued...
   * The listen socket is a socket which is waiting for incoming connections.
   * This call to listen will block (i.e. not return) until someone tries to 
   * connect to this port.
   */ 
  if ((listen(fd_listen,1)) < 0)
 2002da8:	e13f7717 	ldw	r4,-548(fp)
 2002dac:	01400044 	movi	r5,1
 2002db0:	202b6bc0 	call	202b6bc <t_listen>
 2002db4:	1000030e 	bge	r2,zero,2002dc4 <WSTask+0x8c>
  {
    die_with_error("[WSTask] Listen failed");
 2002db8:	01008174 	movhi	r4,517
 2002dbc:	2133e304 	addi	r4,r4,-12404
 2002dc0:	200308c0 	call	200308c <die_with_error>

  /* 
   * At this point we have successfully created a socket which is listening
   * on HTTP_PORT for connection requests from any remote address.
   */
  for(i=0; i<HTTP_NUM_CONNECTIONS; i++)
 2002dc4:	e03f7515 	stw	zero,-556(fp)
 2002dc8:	00000b06 	br	2002df8 <WSTask+0xc0>
  {
    http_reset_connection(&conn[i], i);
 2002dcc:	e0bf7517 	ldw	r2,-556(fp)
 2002dd0:	10c87624 	muli	r3,r2,8664
 2002dd4:	00808174 	movhi	r2,517
 2002dd8:	1090fe04 	addi	r2,r2,17400
 2002ddc:	1885883a 	add	r2,r3,r2
 2002de0:	1009883a 	mov	r4,r2
 2002de4:	e17f7517 	ldw	r5,-556(fp)
 2002de8:	2000fcc0 	call	2000fcc <http_reset_connection>

  /* 
   * At this point we have successfully created a socket which is listening
   * on HTTP_PORT for connection requests from any remote address.
   */
  for(i=0; i<HTTP_NUM_CONNECTIONS; i++)
 2002dec:	e0bf7517 	ldw	r2,-556(fp)
 2002df0:	10800044 	addi	r2,r2,1
 2002df4:	e0bf7515 	stw	r2,-556(fp)
 2002df8:	e0bf7517 	ldw	r2,-556(fp)
 2002dfc:	10800190 	cmplti	r2,r2,6
 2002e00:	103ff21e 	bne	r2,zero,2002dcc <WSTask+0x94>
     * 
     *   FD_ZERO  - Zero's out the sockets we're interested in
     *   FD_SET   - Adds a socket to those we're interested in
     *   FD_ISSET - Tests whether the chosen socket is set 
     */
    FD_ZERO(&readfds);
 2002e04:	e03f7e15 	stw	zero,-520(fp)
    FD_ZERO(&writefds);
 2002e08:	e03fbf15 	stw	zero,-260(fp)
    FD_SET(fd_listen, &readfds);
 2002e0c:	e0bf7e04 	addi	r2,fp,-520
 2002e10:	e13f7717 	ldw	r4,-548(fp)
 2002e14:	100b883a 	mov	r5,r2
 2002e18:	203050c0 	call	203050c <ifd_set>
    
    max_socket = fd_listen+1;
 2002e1c:	e0bf7717 	ldw	r2,-548(fp)
 2002e20:	10800044 	addi	r2,r2,1
 2002e24:	e0bf7615 	stw	r2,-552(fp)
    
    for(i=0; i<HTTP_NUM_CONNECTIONS; i++)
 2002e28:	e03f7515 	stw	zero,-556(fp)
 2002e2c:	00003c06 	br	2002f20 <WSTask+0x1e8>
    {
      if (conn[i].fd != -1)
 2002e30:	00c08174 	movhi	r3,517
 2002e34:	18d0fe04 	addi	r3,r3,17400
 2002e38:	e0bf7517 	ldw	r2,-556(fp)
 2002e3c:	10887624 	muli	r2,r2,8664
 2002e40:	1885883a 	add	r2,r3,r2
 2002e44:	10800304 	addi	r2,r2,12
 2002e48:	10800017 	ldw	r2,0(r2)
 2002e4c:	10bfffe0 	cmpeqi	r2,r2,-1
 2002e50:	1000301e 	bne	r2,zero,2002f14 <WSTask+0x1dc>
      {
        /* We're interested in reading any of our active sockets */
        FD_SET(conn[i].fd, &readfds);
 2002e54:	00c08174 	movhi	r3,517
 2002e58:	18d0fe04 	addi	r3,r3,17400
 2002e5c:	e0bf7517 	ldw	r2,-556(fp)
 2002e60:	10887624 	muli	r2,r2,8664
 2002e64:	1885883a 	add	r2,r3,r2
 2002e68:	10800304 	addi	r2,r2,12
 2002e6c:	10c00017 	ldw	r3,0(r2)
 2002e70:	e0bf7e04 	addi	r2,fp,-520
 2002e74:	1809883a 	mov	r4,r3
 2002e78:	100b883a 	mov	r5,r2
 2002e7c:	203050c0 	call	203050c <ifd_set>
        
        /* 
         * We're interested in writing to any of our active sockets in the DATA
         * state
         */
        if(conn[i].state == DATA)
 2002e80:	00c08174 	movhi	r3,517
 2002e84:	18d0fe04 	addi	r3,r3,17400
 2002e88:	e0bf7517 	ldw	r2,-556(fp)
 2002e8c:	10887624 	muli	r2,r2,8664
 2002e90:	1885883a 	add	r2,r3,r2
 2002e94:	10800017 	ldw	r2,0(r2)
 2002e98:	10800098 	cmpnei	r2,r2,2
 2002e9c:	10000b1e 	bne	r2,zero,2002ecc <WSTask+0x194>
        {
          FD_SET(conn[i].fd, &writefds);
 2002ea0:	00c08174 	movhi	r3,517
 2002ea4:	18d0fe04 	addi	r3,r3,17400
 2002ea8:	e0bf7517 	ldw	r2,-556(fp)
 2002eac:	10887624 	muli	r2,r2,8664
 2002eb0:	1885883a 	add	r2,r3,r2
 2002eb4:	10800304 	addi	r2,r2,12
 2002eb8:	10c00017 	ldw	r3,0(r2)
 2002ebc:	e0bfbf04 	addi	r2,fp,-260
 2002ec0:	1809883a 	mov	r4,r3
 2002ec4:	100b883a 	mov	r5,r2
 2002ec8:	203050c0 	call	203050c <ifd_set>
        /*
         * select() must be called with the maximum number of sockets to look 
         * through. This will be the largest socket number + 1 (since we start
         * at zero).
         */
        if (max_socket <= conn[i].fd)
 2002ecc:	00c08174 	movhi	r3,517
 2002ed0:	18d0fe04 	addi	r3,r3,17400
 2002ed4:	e0bf7517 	ldw	r2,-556(fp)
 2002ed8:	10887624 	muli	r2,r2,8664
 2002edc:	1885883a 	add	r2,r3,r2
 2002ee0:	10800304 	addi	r2,r2,12
 2002ee4:	10c00017 	ldw	r3,0(r2)
 2002ee8:	e0bf7617 	ldw	r2,-552(fp)
 2002eec:	18800916 	blt	r3,r2,2002f14 <WSTask+0x1dc>
        {
          max_socket = conn[i].fd+1;
 2002ef0:	00c08174 	movhi	r3,517
 2002ef4:	18d0fe04 	addi	r3,r3,17400
 2002ef8:	e0bf7517 	ldw	r2,-556(fp)
 2002efc:	10887624 	muli	r2,r2,8664
 2002f00:	1885883a 	add	r2,r3,r2
 2002f04:	10800304 	addi	r2,r2,12
 2002f08:	10800017 	ldw	r2,0(r2)
 2002f0c:	10800044 	addi	r2,r2,1
 2002f10:	e0bf7615 	stw	r2,-552(fp)
    FD_ZERO(&writefds);
    FD_SET(fd_listen, &readfds);
    
    max_socket = fd_listen+1;
    
    for(i=0; i<HTTP_NUM_CONNECTIONS; i++)
 2002f14:	e0bf7517 	ldw	r2,-556(fp)
 2002f18:	10800044 	addi	r2,r2,1
 2002f1c:	e0bf7515 	stw	r2,-556(fp)
 2002f20:	e0bf7517 	ldw	r2,-556(fp)
 2002f24:	10800190 	cmplti	r2,r2,6
 2002f28:	103fc11e 	bne	r2,zero,2002e30 <WSTask+0xf8>

    /* 
     * Set timeout value for select. This must be reset for each select()
     * call.
     */
    select_timeout.tv_sec = 0;
 2002f2c:	e03f7c15 	stw	zero,-528(fp)
    select_timeout.tv_usec = 500000;
 2002f30:	00800234 	movhi	r2,8
 2002f34:	10a84804 	addi	r2,r2,-24288
 2002f38:	e0bf7d15 	stw	r2,-524(fp)

    select(max_socket, &readfds, &writefds, NULL, &select_timeout);
 2002f3c:	e0ff7e04 	addi	r3,fp,-520
 2002f40:	e0bfbf04 	addi	r2,fp,-260
 2002f44:	e13f7c04 	addi	r4,fp,-528
 2002f48:	d9000015 	stw	r4,0(sp)
 2002f4c:	e13f7617 	ldw	r4,-552(fp)
 2002f50:	180b883a 	mov	r5,r3
 2002f54:	100d883a 	mov	r6,r2
 2002f58:	000f883a 	mov	r7,zero
 2002f5c:	20264bc0 	call	20264bc <bsd_select>
     * If fd_listen (the listening socket we originally created in this thread
     * is "set" in readfds, then we have an incoming connection request. 
     * We'll call a routine to explicitly accept or deny the incoming connection 
     * request.
     */
    if (FD_ISSET(fd_listen, &readfds))
 2002f60:	e0bf7e04 	addi	r2,fp,-520
 2002f64:	e13f7717 	ldw	r4,-548(fp)
 2002f68:	100b883a 	mov	r5,r2
 2002f6c:	20305800 	call	2030580 <ifd_isset>
 2002f70:	10000426 	beq	r2,zero,2002f84 <WSTask+0x24c>
    {
      http_handle_accept(fd_listen, conn);
 2002f74:	e13f7717 	ldw	r4,-548(fp)
 2002f78:	01408174 	movhi	r5,517
 2002f7c:	2950fe04 	addi	r5,r5,17400
 2002f80:	20012340 	call	2001234 <http_handle_accept>
     * in conn[i].fd. Therefore if conn[i].fd is set in readfs, we have
     * incoming data for our HTTP server, and we call our receive routine
     * to process it. Likewise, if conn[i].fd is set in writefds, we have
     * an open connection that is *capable* of being written to.
     */
    for(i=0; i<HTTP_NUM_CONNECTIONS; i++)
 2002f84:	e03f7515 	stw	zero,-556(fp)
 2002f88:	00003c06 	br	200307c <WSTask+0x344>
    {
      if (conn[i].fd != -1)
 2002f8c:	00c08174 	movhi	r3,517
 2002f90:	18d0fe04 	addi	r3,r3,17400
 2002f94:	e0bf7517 	ldw	r2,-556(fp)
 2002f98:	10887624 	muli	r2,r2,8664
 2002f9c:	1885883a 	add	r2,r3,r2
 2002fa0:	10800304 	addi	r2,r2,12
 2002fa4:	10800017 	ldw	r2,0(r2)
 2002fa8:	10bfffe0 	cmpeqi	r2,r2,-1
 2002fac:	1000301e 	bne	r2,zero,2003070 <WSTask+0x338>
      { 
        if(FD_ISSET(conn[i].fd,&readfds))
 2002fb0:	00c08174 	movhi	r3,517
 2002fb4:	18d0fe04 	addi	r3,r3,17400
 2002fb8:	e0bf7517 	ldw	r2,-556(fp)
 2002fbc:	10887624 	muli	r2,r2,8664
 2002fc0:	1885883a 	add	r2,r3,r2
 2002fc4:	10800304 	addi	r2,r2,12
 2002fc8:	10c00017 	ldw	r3,0(r2)
 2002fcc:	e0bf7e04 	addi	r2,fp,-520
 2002fd0:	1809883a 	mov	r4,r3
 2002fd4:	100b883a 	mov	r5,r2
 2002fd8:	20305800 	call	2030580 <ifd_isset>
 2002fdc:	10000826 	beq	r2,zero,2003000 <WSTask+0x2c8>
        {
          http_handle_receive(&conn[i], i);
 2002fe0:	e0bf7517 	ldw	r2,-556(fp)
 2002fe4:	10c87624 	muli	r3,r2,8664
 2002fe8:	00808174 	movhi	r2,517
 2002fec:	1090fe04 	addi	r2,r2,17400
 2002ff0:	1885883a 	add	r2,r3,r2
 2002ff4:	1009883a 	mov	r4,r2
 2002ff8:	e17f7517 	ldw	r5,-556(fp)
 2002ffc:	20029140 	call	2002914 <http_handle_receive>
        }
        
        if(FD_ISSET(conn[i].fd,&writefds))
 2003000:	00c08174 	movhi	r3,517
 2003004:	18d0fe04 	addi	r3,r3,17400
 2003008:	e0bf7517 	ldw	r2,-556(fp)
 200300c:	10887624 	muli	r2,r2,8664
 2003010:	1885883a 	add	r2,r3,r2
 2003014:	10800304 	addi	r2,r2,12
 2003018:	10c00017 	ldw	r3,0(r2)
 200301c:	e0bfbf04 	addi	r2,fp,-260
 2003020:	1809883a 	mov	r4,r3
 2003024:	100b883a 	mov	r5,r2
 2003028:	20305800 	call	2030580 <ifd_isset>
 200302c:	10000826 	beq	r2,zero,2003050 <WSTask+0x318>
        {
          http_handle_transmit(&conn[i], i);
 2003030:	e0bf7517 	ldw	r2,-556(fp)
 2003034:	10c87624 	muli	r3,r2,8664
 2003038:	00808174 	movhi	r2,517
 200303c:	1090fe04 	addi	r2,r2,17400
 2003040:	1885883a 	add	r2,r3,r2
 2003044:	1009883a 	mov	r4,r2
 2003048:	e17f7517 	ldw	r5,-556(fp)
 200304c:	2002cd80 	call	2002cd8 <http_handle_transmit>
        }
        
        http_manage_connection(&conn[i], i);
 2003050:	e0bf7517 	ldw	r2,-556(fp)
 2003054:	10c87624 	muli	r3,r2,8664
 2003058:	00808174 	movhi	r2,517
 200305c:	1090fe04 	addi	r2,r2,17400
 2003060:	1885883a 	add	r2,r3,r2
 2003064:	1009883a 	mov	r4,r2
 2003068:	e17f7517 	ldw	r5,-556(fp)
 200306c:	20010980 	call	2001098 <http_manage_connection>
     * in conn[i].fd. Therefore if conn[i].fd is set in readfs, we have
     * incoming data for our HTTP server, and we call our receive routine
     * to process it. Likewise, if conn[i].fd is set in writefds, we have
     * an open connection that is *capable* of being written to.
     */
    for(i=0; i<HTTP_NUM_CONNECTIONS; i++)
 2003070:	e0bf7517 	ldw	r2,-556(fp)
 2003074:	10800044 	addi	r2,r2,1
 2003078:	e0bf7515 	stw	r2,-556(fp)
 200307c:	e0bf7517 	ldw	r2,-556(fp)
 2003080:	10800190 	cmplti	r2,r2,6
 2003084:	103fc11e 	bne	r2,zero,2002f8c <WSTask+0x254>
        }
        
        http_manage_connection(&conn[i], i);
      }
    }  
  } /* while(1) */
 2003088:	003f5e06 	br	2002e04 <WSTask+0xcc>

0200308c <die_with_error>:
 * 
 * This routine is just called when a blocking error occurs with the example
 * design. It deletes the current task.
 */
void die_with_error(char err_msg[DIE_WITH_ERROR_BUFFER])
{
 200308c:	defffd04 	addi	sp,sp,-12
 2003090:	dfc00215 	stw	ra,8(sp)
 2003094:	df000115 	stw	fp,4(sp)
 2003098:	df000104 	addi	fp,sp,4
 200309c:	e13fff15 	stw	r4,-4(fp)
  printf("\n%s\n", err_msg);
 20030a0:	01008174 	movhi	r4,517
 20030a4:	2133e904 	addi	r4,r4,-12380
 20030a8:	e17fff17 	ldw	r5,-4(fp)
 20030ac:	2006a240 	call	2006a24 <printf>
  OSTaskDel(OS_PRIO_SELF);
 20030b0:	01003fc4 	movi	r4,255
 20030b4:	201cff80 	call	201cff8 <OSTaskDel>
  
  while(1);
 20030b8:	003fff06 	br	20030b8 <die_with_error+0x2c>

020030bc <get_serial_number>:
*
* Prompt user to enter 9-digit serial number. 
*
*/
alt_u32 get_serial_number (void)
{
 20030bc:	defff904 	addi	sp,sp,-28
 20030c0:	dfc00615 	stw	ra,24(sp)
 20030c4:	df000515 	stw	fp,20(sp)
 20030c8:	df000504 	addi	fp,sp,20
    alt_u32 ser_num = 0;
 20030cc:	e03ffb15 	stw	zero,-20(fp)
    char serial_number[9];
    int i = 0;
 20030d0:	e03ffc15 	stw	zero,-16(fp)
    
    while(!ser_num)
 20030d4:	00006506 	br	200326c <get_serial_number+0x1b0>
    {
        printf("Please enter your 9-digit serial number. This is printed on a \n");
 20030d8:	01008174 	movhi	r4,517
 20030dc:	2133eb04 	addi	r4,r4,-12372
 20030e0:	2006cb40 	call	2006cb4 <puts>
        printf("label under your Nios dev. board. The first 3 digits of the \n");
 20030e4:	01008174 	movhi	r4,517
 20030e8:	2133fb04 	addi	r4,r4,-12308
 20030ec:	2006cb40 	call	2006cb4 <puts>
        printf("label are ASJ and the serial number follows this.\n -->");
 20030f0:	01008174 	movhi	r4,517
 20030f4:	21340b04 	addi	r4,r4,-12244
 20030f8:	2006a240 	call	2006a24 <printf>
        
        for(i=0; i<9; i++)
 20030fc:	e03ffc15 	stw	zero,-16(fp)
 2003100:	00002a06 	br	20031ac <get_serial_number+0xf0>
        {
            serial_number[i] = getchar();
 2003104:	00808174 	movhi	r2,517
 2003108:	10903604 	addi	r2,r2,16600
 200310c:	10800017 	ldw	r2,0(r2)
 2003110:	10800117 	ldw	r2,4(r2)
 2003114:	1009883a 	mov	r4,r2
 2003118:	2005c580 	call	2005c58 <getc>
 200311c:	1007883a 	mov	r3,r2
 2003120:	e13ffd04 	addi	r4,fp,-12
 2003124:	e0bffc17 	ldw	r2,-16(fp)
 2003128:	2085883a 	add	r2,r4,r2
 200312c:	10c00005 	stb	r3,0(r2)
            putchar(serial_number[i]);
 2003130:	e0fffd04 	addi	r3,fp,-12
 2003134:	e0bffc17 	ldw	r2,-16(fp)
 2003138:	1885883a 	add	r2,r3,r2
 200313c:	10800003 	ldbu	r2,0(r2)
 2003140:	10c03fcc 	andi	r3,r2,255
 2003144:	18c0201c 	xori	r3,r3,128
 2003148:	18ffe004 	addi	r3,r3,-128
 200314c:	00808174 	movhi	r2,517
 2003150:	10903604 	addi	r2,r2,16600
 2003154:	10800017 	ldw	r2,0(r2)
 2003158:	10800217 	ldw	r2,8(r2)
 200315c:	1809883a 	mov	r4,r3
 2003160:	100b883a 	mov	r5,r2
 2003164:	2006b1c0 	call	2006b1c <putc>
            
            /* Handle backspaces.  How civilized. */
            if ((serial_number[i] == 0x08) && (i >= 0)) 
 2003168:	e0fffd04 	addi	r3,fp,-12
 200316c:	e0bffc17 	ldw	r2,-16(fp)
 2003170:	1885883a 	add	r2,r3,r2
 2003174:	10800003 	ldbu	r2,0(r2)
 2003178:	10803fcc 	andi	r2,r2,255
 200317c:	1080201c 	xori	r2,r2,128
 2003180:	10bfe004 	addi	r2,r2,-128
 2003184:	10800218 	cmpnei	r2,r2,8
 2003188:	1000051e 	bne	r2,zero,20031a0 <get_serial_number+0xe4>
 200318c:	e0bffc17 	ldw	r2,-16(fp)
 2003190:	10000316 	blt	r2,zero,20031a0 <get_serial_number+0xe4>
            {
                i--;
 2003194:	e0bffc17 	ldw	r2,-16(fp)
 2003198:	10bfffc4 	addi	r2,r2,-1
 200319c:	e0bffc15 	stw	r2,-16(fp)
    {
        printf("Please enter your 9-digit serial number. This is printed on a \n");
        printf("label under your Nios dev. board. The first 3 digits of the \n");
        printf("label are ASJ and the serial number follows this.\n -->");
        
        for(i=0; i<9; i++)
 20031a0:	e0bffc17 	ldw	r2,-16(fp)
 20031a4:	10800044 	addi	r2,r2,1
 20031a8:	e0bffc15 	stw	r2,-16(fp)
 20031ac:	e0bffc17 	ldw	r2,-16(fp)
 20031b0:	10800250 	cmplti	r2,r2,9
 20031b4:	103fd31e 	bne	r2,zero,2003104 <get_serial_number+0x48>
            if ((serial_number[i] == 0x08) && (i >= 0)) 
            {
                i--;
            }
        }
        printf("\n");
 20031b8:	01000284 	movi	r4,10
 20031bc:	2006c140 	call	2006c14 <putchar>
                
        for(i=0; i<9; i++)
 20031c0:	e03ffc15 	stw	zero,-16(fp)
 20031c4:	00002606 	br	2003260 <get_serial_number+0x1a4>
        {
            if (isdigit(serial_number[i]))
 20031c8:	00808174 	movhi	r2,517
 20031cc:	10903404 	addi	r2,r2,16592
 20031d0:	10c00017 	ldw	r3,0(r2)
 20031d4:	e13ffd04 	addi	r4,fp,-12
 20031d8:	e0bffc17 	ldw	r2,-16(fp)
 20031dc:	2085883a 	add	r2,r4,r2
 20031e0:	10800003 	ldbu	r2,0(r2)
 20031e4:	10803fcc 	andi	r2,r2,255
 20031e8:	1080201c 	xori	r2,r2,128
 20031ec:	10bfe004 	addi	r2,r2,-128
 20031f0:	1885883a 	add	r2,r3,r2
 20031f4:	10800003 	ldbu	r2,0(r2)
 20031f8:	10803fcc 	andi	r2,r2,255
 20031fc:	1080010c 	andi	r2,r2,4
 2003200:	10001226 	beq	r2,zero,200324c <get_serial_number+0x190>
            {
                ser_num *= 10;
 2003204:	e0bffb17 	ldw	r2,-20(fp)
 2003208:	108002a4 	muli	r2,r2,10
 200320c:	e0bffb15 	stw	r2,-20(fp)
                ser_num += serial_number[i] - '0';
 2003210:	e0fffd04 	addi	r3,fp,-12
 2003214:	e0bffc17 	ldw	r2,-16(fp)
 2003218:	1885883a 	add	r2,r3,r2
 200321c:	10800003 	ldbu	r2,0(r2)
 2003220:	10c03fcc 	andi	r3,r2,255
 2003224:	18c0201c 	xori	r3,r3,128
 2003228:	18ffe004 	addi	r3,r3,-128
 200322c:	e0bffb17 	ldw	r2,-20(fp)
 2003230:	1885883a 	add	r2,r3,r2
 2003234:	10bff404 	addi	r2,r2,-48
 2003238:	e0bffb15 	stw	r2,-20(fp)
                i--;
            }
        }
        printf("\n");
                
        for(i=0; i<9; i++)
 200323c:	e0bffc17 	ldw	r2,-16(fp)
 2003240:	10800044 	addi	r2,r2,1
 2003244:	e0bffc15 	stw	r2,-16(fp)
 2003248:	00000506 	br	2003260 <get_serial_number+0x1a4>
                ser_num *= 10;
                ser_num += serial_number[i] - '0';
            }
            else
            {
                ser_num = 0;
 200324c:	e03ffb15 	stw	zero,-20(fp)
                printf("Serial number only contains decimal digits and is non-zero\n");
 2003250:	01008174 	movhi	r4,517
 2003254:	21341904 	addi	r4,r4,-12188
 2003258:	2006cb40 	call	2006cb4 <puts>
                break;
 200325c:	00000306 	br	200326c <get_serial_number+0x1b0>
                i--;
            }
        }
        printf("\n");
                
        for(i=0; i<9; i++)
 2003260:	e0bffc17 	ldw	r2,-16(fp)
 2003264:	10800250 	cmplti	r2,r2,9
 2003268:	103fd71e 	bne	r2,zero,20031c8 <get_serial_number+0x10c>
{
    alt_u32 ser_num = 0;
    char serial_number[9];
    int i = 0;
    
    while(!ser_num)
 200326c:	e0bffb17 	ldw	r2,-20(fp)
 2003270:	103f9926 	beq	r2,zero,20030d8 <get_serial_number+0x1c>
                break;
            }
        }
    }
    
    return ser_num;
 2003274:	e0bffb17 	ldw	r2,-20(fp)
}
 2003278:	e037883a 	mov	sp,fp
 200327c:	dfc00117 	ldw	ra,4(sp)
 2003280:	df000017 	ldw	fp,0(sp)
 2003284:	dec00204 	addi	sp,sp,8
 2003288:	f800283a 	ret

0200328c <generate_and_store_mac_addr>:
 * sections. These fail-safe static settings are compatible with previous
 * Nios Ethernet designs, and allow the "factory-safe" design to behave 
 * as expected if the last flash sector is erased.
 */
error_t generate_and_store_mac_addr()
{
 200328c:	deffef04 	addi	sp,sp,-68
 2003290:	dfc01015 	stw	ra,64(sp)
 2003294:	df000f15 	stw	fp,60(sp)
 2003298:	df000f04 	addi	fp,sp,60
    error_t error = -1;
 200329c:	00bfffc4 	movi	r2,-1
 20032a0:	e0bff115 	stw	r2,-60(fp)
    alt_u32 ser_num = 0;
 20032a4:	e03ff215 	stw	zero,-56(fp)
    char flash_content[32];
    alt_flash_fd* flash_handle;
    
    printf("Can't read the MAC address from your board (this probably means\n");
 20032a8:	01008174 	movhi	r4,517
 20032ac:	21342804 	addi	r4,r4,-12128
 20032b0:	2006cb40 	call	2006cb4 <puts>
    printf("that your flash was erased). We will assign you a MAC address and\n");
 20032b4:	01008174 	movhi	r4,517
 20032b8:	21343804 	addi	r4,r4,-12064
 20032bc:	2006cb40 	call	2006cb4 <puts>
    printf("static network settings\n\n");
 20032c0:	01008174 	movhi	r4,517
 20032c4:	21344904 	addi	r4,r4,-11996
 20032c8:	2006cb40 	call	2006cb4 <puts>
    
    ser_num = get_serial_number();
 20032cc:	20030bc0 	call	20030bc <get_serial_number>
 20032d0:	e0bff215 	stw	r2,-56(fp)
  
    if (ser_num)
 20032d4:	e0bff217 	ldw	r2,-56(fp)
 20032d8:	10005626 	beq	r2,zero,2003434 <generate_and_store_mac_addr+0x1a8>
    {
        /* This says the image is safe */
        flash_content[0] = 0xfe;
 20032dc:	00bfff84 	movi	r2,-2
 20032e0:	e0bff805 	stb	r2,-32(fp)
        flash_content[1] = 0x5a;
 20032e4:	00801684 	movi	r2,90
 20032e8:	e0bff845 	stb	r2,-31(fp)
        flash_content[2] = 0x0;
 20032ec:	e03ff885 	stb	zero,-30(fp)
        flash_content[3] = 0x0;
 20032f0:	e03ff8c5 	stb	zero,-29(fp)
        
        /* This is the Altera Vendor ID */
        flash_content[4] = 0x0;
 20032f4:	e03ff905 	stb	zero,-28(fp)
        flash_content[5] = 0x7;
 20032f8:	008001c4 	movi	r2,7
 20032fc:	e0bff945 	stb	r2,-27(fp)
        flash_content[6] = 0xed;
 2003300:	00bffb44 	movi	r2,-19
 2003304:	e0bff985 	stb	r2,-26(fp)
        
        /* Reserverd Board identifier for erase boards */
        flash_content[7] = 0xFF;
 2003308:	00bfffc4 	movi	r2,-1
 200330c:	e0bff9c5 	stb	r2,-25(fp)
        flash_content[8] = (ser_num & 0xff00) >> 8;
 2003310:	e0bff217 	ldw	r2,-56(fp)
 2003314:	10bfc00c 	andi	r2,r2,65280
 2003318:	1004d23a 	srli	r2,r2,8
 200331c:	e0bffa05 	stb	r2,-24(fp)
        flash_content[9] = ser_num & 0xff;
 2003320:	e0bff217 	ldw	r2,-56(fp)
 2003324:	e0bffa45 	stb	r2,-23(fp)
        
        /* Then comes a 16-bit "flags" field */
        flash_content[10] = 0xFF;
 2003328:	00bfffc4 	movi	r2,-1
 200332c:	e0bffa85 	stb	r2,-22(fp)
        flash_content[11] = 0xFF;
 2003330:	00bfffc4 	movi	r2,-1
 2003334:	e0bffac5 	stb	r2,-21(fp)
        
        /* Then comes the static IP address */
        flash_content[12] = IPADDR0;
 2003338:	00bff004 	movi	r2,-64
 200333c:	e0bffb05 	stb	r2,-20(fp)
        flash_content[13] = IPADDR1;
 2003340:	00bfea04 	movi	r2,-88
 2003344:	e0bffb45 	stb	r2,-19(fp)
        flash_content[14] = IPADDR2;
 2003348:	00800044 	movi	r2,1
 200334c:	e0bffb85 	stb	r2,-18(fp)
        flash_content[15] = IPADDR3;
 2003350:	00bffa84 	movi	r2,-22
 2003354:	e0bffbc5 	stb	r2,-17(fp)
        
        /* Then comes the static nameserver address */
        flash_content[16] = 0xFF;
 2003358:	00bfffc4 	movi	r2,-1
 200335c:	e0bffc05 	stb	r2,-16(fp)
        flash_content[17] = 0xFF;
 2003360:	00bfffc4 	movi	r2,-1
 2003364:	e0bffc45 	stb	r2,-15(fp)
        flash_content[18] = 0xFF;
 2003368:	00bfffc4 	movi	r2,-1
 200336c:	e0bffc85 	stb	r2,-14(fp)
        flash_content[19] = 0xFF;
 2003370:	00bfffc4 	movi	r2,-1
 2003374:	e0bffcc5 	stb	r2,-13(fp)
        
        /* Then comes the static subnet mask */
        flash_content[20] = MSKADDR0;
 2003378:	00bfffc4 	movi	r2,-1
 200337c:	e0bffd05 	stb	r2,-12(fp)
        flash_content[21] = MSKADDR1;
 2003380:	00bfffc4 	movi	r2,-1
 2003384:	e0bffd45 	stb	r2,-11(fp)
        flash_content[22] = MSKADDR2;
 2003388:	00bfffc4 	movi	r2,-1
 200338c:	e0bffd85 	stb	r2,-10(fp)
        flash_content[23] = MSKADDR3;
 2003390:	e03ffdc5 	stb	zero,-9(fp)
        
        /* Then comes the static gateway address */
        flash_content[24] = GWADDR0;
 2003394:	00bff004 	movi	r2,-64
 2003398:	e0bffe05 	stb	r2,-8(fp)
        flash_content[25] = GWADDR1;
 200339c:	00bfea04 	movi	r2,-88
 20033a0:	e0bffe45 	stb	r2,-7(fp)
        flash_content[26] = GWADDR2;
 20033a4:	00800044 	movi	r2,1
 20033a8:	e0bffe85 	stb	r2,-6(fp)
        flash_content[27] = GWADDR3;
 20033ac:	00800044 	movi	r2,1
 20033b0:	e0bffec5 	stb	r2,-5(fp)
        
        /* And finally whether to use DHCP - set all bits to be safe */
        flash_content[28] = 0xFF;
 20033b4:	00bfffc4 	movi	r2,-1
 20033b8:	e0bfff05 	stb	r2,-4(fp)
        flash_content[29] = 0xFF;
 20033bc:	00bfffc4 	movi	r2,-1
 20033c0:	e0bfff45 	stb	r2,-3(fp)
        flash_content[30] = 0xFF;
 20033c4:	00bfffc4 	movi	r2,-1
 20033c8:	e0bfff85 	stb	r2,-2(fp)
        flash_content[31] = 0xFF;
 20033cc:	00bfffc4 	movi	r2,-1
 20033d0:	e0bfffc5 	stb	r2,-1(fp)
        
        /* Write the MAC address to flash */
        flash_handle = alt_flash_open_dev(EPCS_FLASH_CONTROLLER_NAME);
 20033d4:	01008174 	movhi	r4,517
 20033d8:	21345004 	addi	r4,r4,-11968
 20033dc:	20150280 	call	2015028 <alt_flash_open_dev>
 20033e0:	e0bff315 	stw	r2,-52(fp)
        if (flash_handle)
 20033e4:	e0bff317 	ldw	r2,-52(fp)
 20033e8:	10001226 	beq	r2,zero,2003434 <generate_and_store_mac_addr+0x1a8>
        {
            alt_write_flash(flash_handle,
 20033ec:	d0a05b17 	ldw	r2,-32404(gp)
 20033f0:	e0fff317 	ldw	r3,-52(fp)
 20033f4:	e0fff415 	stw	r3,-48(fp)
 20033f8:	e0bff515 	stw	r2,-44(fp)
                            last_flash_sector_offset,
                            flash_content,
 20033fc:	e0bff804 	addi	r2,fp,-32
 2003400:	e0bff615 	stw	r2,-40(fp)
 2003404:	00800804 	movi	r2,32
 2003408:	e0bff715 	stw	r2,-36(fp)
                                                           alt_flash_fd* fd, 
                                                           int offset, 
                                                           const void* src_addr, 
                                                           int length )
{
  return fd->write( fd, offset, src_addr, length );
 200340c:	e0bff417 	ldw	r2,-48(fp)
 2003410:	10800517 	ldw	r2,20(r2)
 2003414:	e13ff417 	ldw	r4,-48(fp)
 2003418:	e17ff517 	ldw	r5,-44(fp)
 200341c:	e1bff617 	ldw	r6,-40(fp)
 2003420:	e1fff717 	ldw	r7,-36(fp)
 2003424:	103ee83a 	callr	r2
                            32);
            alt_flash_close_dev(flash_handle);
 2003428:	e13ff317 	ldw	r4,-52(fp)
 200342c:	20150900 	call	2015090 <alt_flash_close_dev>
            error = 0;
 2003430:	e03ff115 	stw	zero,-60(fp)
        }
    }

    return error;    
 2003434:	e0bff117 	ldw	r2,-60(fp)
}
 2003438:	e037883a 	mov	sp,fp
 200343c:	dfc00117 	ldw	ra,4(sp)
 2003440:	df000017 	ldw	fp,0(sp)
 2003444:	dec00204 	addi	sp,sp,8
 2003448:	f800283a 	ret

0200344c <generate_mac_addr>:
 * Development Board serial number is 040800017, the corresponding ethernet 
 * number generated will be 00:07:ED:FF:8F:11.
 * 
 */
error_t generate_mac_addr(unsigned char mac_addr[6])
{
 200344c:	defff804 	addi	sp,sp,-32
 2003450:	dfc00715 	stw	ra,28(sp)
 2003454:	df000615 	stw	fp,24(sp)
 2003458:	df000604 	addi	fp,sp,24
 200345c:	e13fff15 	stw	r4,-4(fp)
    error_t error = -1;
 2003460:	00bfffc4 	movi	r2,-1
 2003464:	e0bffd15 	stw	r2,-12(fp)
    alt_u32 ser_num = 0;
 2003468:	e03ffe15 	stw	zero,-8(fp)
    
